
Dump of file test.exe

File Type: EXECUTABLE IMAGE

  0000000140001000: C3                 ret
  0000000140001001: 66 66 2E 0F 1F 84  nop         word ptr cs:[rax+rax+0000000000000000h]
                    00 00 00 00 00
  000000014000100C: 0F 1F 40 00        nop         dword ptr [rax]
  0000000140001010: 48 83 EC 28        sub         rsp,28h
  0000000140001014: 48 8B 05 D5 33 00  mov         rax,qword ptr [00000001400043F0h]
                    00
  000000014000101B: 31 C9              xor         ecx,ecx
  000000014000101D: C7 00 01 00 00 00  mov         dword ptr [rax],1
  0000000140001023: 48 8B 05 D6 33 00  mov         rax,qword ptr [0000000140004400h]
                    00
  000000014000102A: C7 00 01 00 00 00  mov         dword ptr [rax],1
  0000000140001030: 48 8B 05 D9 33 00  mov         rax,qword ptr [0000000140004410h]
                    00
  0000000140001037: C7 00 01 00 00 00  mov         dword ptr [rax],1
  000000014000103D: 48 8B 05 6C 33 00  mov         rax,qword ptr [00000001400043B0h]
                    00
  0000000140001044: 66 81 38 4D 5A     cmp         word ptr [rax],5A4Dh
  0000000140001049: 75 0F              jne         000000014000105A
  000000014000104B: 48 63 50 3C        movsxd      rdx,dword ptr [rax+3Ch]
  000000014000104F: 48 01 D0           add         rax,rdx
  0000000140001052: 81 38 50 45 00 00  cmp         dword ptr [rax],4550h
  0000000140001058: 74 66              je          00000001400010C0
  000000014000105A: 48 8B 05 7F 33 00  mov         rax,qword ptr [00000001400043E0h]
                    00
  0000000140001061: 89 0D A5 5F 00 00  mov         dword ptr [000000014000700Ch],ecx
  0000000140001067: 8B 00              mov         eax,dword ptr [rax]
  0000000140001069: 85 C0              test        eax,eax
  000000014000106B: 74 43              je          00000001400010B0
  000000014000106D: B9 02 00 00 00     mov         ecx,2
  0000000140001072: E8 C9 17 00 00     call        0000000140002840
  0000000140001077: E8 34 17 00 00     call        00000001400027B0
  000000014000107C: 48 8B 15 3D 34 00  mov         rdx,qword ptr [00000001400044C0h]
                    00
  0000000140001083: 8B 12              mov         edx,dword ptr [rdx]
  0000000140001085: 89 10              mov         dword ptr [rax],edx
  0000000140001087: E8 1C 17 00 00     call        00000001400027A8
  000000014000108C: 48 8B 15 0D 34 00  mov         rdx,qword ptr [00000001400044A0h]
                    00
  0000000140001093: 8B 12              mov         edx,dword ptr [rdx]
  0000000140001095: 89 10              mov         dword ptr [rax],edx
  0000000140001097: E8 84 04 00 00     call        0000000140001520
  000000014000109C: 48 8B 05 BD 32 00  mov         rax,qword ptr [0000000140004360h]
                    00
  00000001400010A3: 83 38 01           cmp         dword ptr [rax],1
  00000001400010A6: 74 50              je          00000001400010F8
  00000001400010A8: 31 C0              xor         eax,eax
  00000001400010AA: 48 83 C4 28        add         rsp,28h
  00000001400010AE: C3                 ret
  00000001400010AF: 90                 nop
  00000001400010B0: B9 01 00 00 00     mov         ecx,1
  00000001400010B5: E8 86 17 00 00     call        0000000140002840
  00000001400010BA: EB BB              jmp         0000000140001077
  00000001400010BC: 0F 1F 40 00        nop         dword ptr [rax]
  00000001400010C0: 0F B7 50 18        movzx       edx,word ptr [rax+18h]
  00000001400010C4: 66 81 FA 0B 01     cmp         dx,10Bh
  00000001400010C9: 74 45              je          0000000140001110
  00000001400010CB: 66 81 FA 0B 02     cmp         dx,20Bh
  00000001400010D0: 75 88              jne         000000014000105A
  00000001400010D2: 83 B8 84 00 00 00  cmp         dword ptr [rax+0000000000000084h],0Eh
                    0E
  00000001400010D9: 0F 86 7B FF FF FF  jbe         000000014000105A
  00000001400010DF: 8B 90 F8 00 00 00  mov         edx,dword ptr [rax+00000000000000F8h]
  00000001400010E5: 31 C9              xor         ecx,ecx
  00000001400010E7: 85 D2              test        edx,edx
  00000001400010E9: 0F 95 C1           setne       cl
  00000001400010EC: E9 69 FF FF FF     jmp         000000014000105A
  00000001400010F1: 0F 1F 80 00 00 00  nop         dword ptr [rax+0000000000000000h]
                    00
  00000001400010F8: 48 8B 0D E1 33 00  mov         rcx,qword ptr [00000001400044E0h]
                    00
  00000001400010FF: E8 8C 0B 00 00     call        0000000140001C90
  0000000140001104: 31 C0              xor         eax,eax
  0000000140001106: 48 83 C4 28        add         rsp,28h
  000000014000110A: C3                 ret
  000000014000110B: 0F 1F 44 00 00     nop         dword ptr [rax+rax]
  0000000140001110: 83 78 74 0E        cmp         dword ptr [rax+74h],0Eh
  0000000140001114: 0F 86 40 FF FF FF  jbe         000000014000105A
  000000014000111A: 44 8B 80 E8 00 00  mov         r8d,dword ptr [rax+00000000000000E8h]
                    00
  0000000140001121: 31 C9              xor         ecx,ecx
  0000000140001123: 45 85 C0           test        r8d,r8d
  0000000140001126: 0F 95 C1           setne       cl
  0000000140001129: E9 2C FF FF FF     jmp         000000014000105A
  000000014000112E: 66 90              nop
  0000000140001130: 48 83 EC 38        sub         rsp,38h
  0000000140001134: 48 8B 05 B5 33 00  mov         rax,qword ptr [00000001400044F0h]
                    00
  000000014000113B: 4C 8D 05 D6 5E 00  lea         r8,[0000000140007018h]
                    00
  0000000140001142: 48 8D 15 D7 5E 00  lea         rdx,[0000000140007020h]
                    00
  0000000140001149: 48 8D 0D D8 5E 00  lea         rcx,[0000000140007028h]
                    00
  0000000140001150: 8B 00              mov         eax,dword ptr [rax]
  0000000140001152: 89 05 AC 5E 00 00  mov         dword ptr [0000000140007004h],eax
  0000000140001158: 48 8B 05 51 33 00  mov         rax,qword ptr [00000001400044B0h]
                    00
  000000014000115F: 44 8B 08           mov         r9d,dword ptr [rax]
  0000000140001162: 48 8D 05 9B 5E 00  lea         rax,[0000000140007004h]
                    00
  0000000140001169: 48 89 44 24 20     mov         qword ptr [rsp+20h],rax
  000000014000116E: E8 ED 13 00 00     call        0000000140002560
  0000000140001173: 90                 nop
  0000000140001174: 48 83 C4 38        add         rsp,38h
  0000000140001178: C3                 ret
  0000000140001179: 0F 1F 80 00 00 00  nop         dword ptr [rax+0000000000000000h]
                    00
  0000000140001180: 41 54              push        r12
  0000000140001182: 55                 push        rbp
  0000000140001183: 57                 push        rdi
  0000000140001184: 56                 push        rsi
  0000000140001185: 53                 push        rbx
  0000000140001186: 48 83 EC 20        sub         rsp,20h
  000000014000118A: 48 8B 1D AF 32 00  mov         rbx,qword ptr [0000000140004440h]
                    00
  0000000140001191: 31 FF              xor         edi,edi
  0000000140001193: 65 48 8B 04 25 30  mov         rax,qword ptr gs:[0000000000000030h]
                    00 00 00
  000000014000119C: 48 8B 2D 25 71 00  mov         rbp,qword ptr [00000001400082C8h]
                    00
  00000001400011A3: 48 8B 70 08        mov         rsi,qword ptr [rax+8]
  00000001400011A7: EB 17              jmp         00000001400011C0
  00000001400011A9: 0F 1F 80 00 00 00  nop         dword ptr [rax+0000000000000000h]
                    00
  00000001400011B0: 48 39 C6           cmp         rsi,rax
  00000001400011B3: 0F 84 67 01 00 00  je          0000000140001320
  00000001400011B9: B9 E8 03 00 00     mov         ecx,3E8h
  00000001400011BE: FF D5              call        rbp
  00000001400011C0: 48 89 F8           mov         rax,rdi
  00000001400011C3: F0 48 0F B1 33     lock cmpxchg qword ptr [rbx],rsi
  00000001400011C8: 48 85 C0           test        rax,rax
  00000001400011CB: 75 E3              jne         00000001400011B0
  00000001400011CD: 48 8B 35 7C 32 00  mov         rsi,qword ptr [0000000140004450h]
                    00
  00000001400011D4: 31 FF              xor         edi,edi
  00000001400011D6: 8B 06              mov         eax,dword ptr [rsi]
  00000001400011D8: 83 F8 01           cmp         eax,1
  00000001400011DB: 0F 84 56 01 00 00  je          0000000140001337
  00000001400011E1: 8B 06              mov         eax,dword ptr [rsi]
  00000001400011E3: 85 C0              test        eax,eax
  00000001400011E5: 0F 84 B5 01 00 00  je          00000001400013A0
  00000001400011EB: C7 05 13 5E 00 00  mov         dword ptr [0000000140007008h],1
                    01 00 00 00
  00000001400011F5: 8B 06              mov         eax,dword ptr [rsi]
  00000001400011F7: 83 F8 01           cmp         eax,1
  00000001400011FA: 0F 84 4C 01 00 00  je          000000014000134C
  0000000140001200: 85 FF              test        edi,edi
  0000000140001202: 0F 84 65 01 00 00  je          000000014000136D
  0000000140001208: 48 8B 05 91 31 00  mov         rax,qword ptr [00000001400043A0h]
                    00
  000000014000120F: 48 8B 00           mov         rax,qword ptr [rax]
  0000000140001212: 48 85 C0           test        rax,rax
  0000000140001215: 74 0C              je          0000000140001223
  0000000140001217: 45 31 C0           xor         r8d,r8d
  000000014000121A: BA 02 00 00 00     mov         edx,2
  000000014000121F: 31 C9              xor         ecx,ecx
  0000000140001221: FF D0              call        rax
  0000000140001223: E8 C8 06 00 00     call        00000001400018F0
  0000000140001228: 48 8B 0D A1 32 00  mov         rcx,qword ptr [00000001400044D0h]
                    00
  000000014000122F: FF 15 8B 70 00 00  call        qword ptr [00000001400082C0h]
  0000000140001235: 48 8B 15 F4 31 00  mov         rdx,qword ptr [0000000140004430h]
                    00
  000000014000123C: 48 8D 0D BD FD FF  lea         rcx,[0000000140001000h]
                    FF
  0000000140001243: 48 89 02           mov         qword ptr [rdx],rax
  0000000140001246: E8 FD 15 00 00     call        0000000140002848
  000000014000124B: E8 B0 04 00 00     call        0000000140001700
  0000000140001250: 8B 1D D2 5D 00 00  mov         ebx,dword ptr [0000000140007028h]
  0000000140001256: 8D 7B 01           lea         edi,[rbx+1]
  0000000140001259: 48 63 FF           movsxd      rdi,edi
  000000014000125C: 48 C1 E7 03        shl         rdi,3
  0000000140001260: 48 89 F9           mov         rcx,rdi
  0000000140001263: E8 40 16 00 00     call        00000001400028A8
  0000000140001268: 85 DB              test        ebx,ebx
  000000014000126A: 48 8B 2D AF 5D 00  mov         rbp,qword ptr [0000000140007020h]
                    00
  0000000140001271: 49 89 C4           mov         r12,rax
  0000000140001274: 0F 8E 46 01 00 00  jle         00000001400013C0
  000000014000127A: 48 83 EF 08        sub         rdi,8
  000000014000127E: 31 DB              xor         ebx,ebx
  0000000140001280: 48 8B 4C 1D 00     mov         rcx,qword ptr [rbp+rbx]
  0000000140001285: E8 06 15 00 00     call        0000000140002790
  000000014000128A: 48 8D 70 01        lea         rsi,[rax+1]
  000000014000128E: 48 89 F1           mov         rcx,rsi
  0000000140001291: E8 12 16 00 00     call        00000001400028A8
  0000000140001296: 49 89 F0           mov         r8,rsi
  0000000140001299: 49 89 04 1C        mov         qword ptr [r12+rbx],rax
  000000014000129D: 48 8B 54 1D 00     mov         rdx,qword ptr [rbp+rbx]
  00000001400012A2: 48 89 C1           mov         rcx,rax
  00000001400012A5: 48 83 C3 08        add         rbx,8
  00000001400012A9: E8 CA 15 00 00     call        0000000140002878
  00000001400012AE: 48 39 DF           cmp         rdi,rbx
  00000001400012B1: 75 CD              jne         0000000140001280
  00000001400012B3: 4C 01 E7           add         rdi,r12
  00000001400012B6: 48 C7 07 00 00 00  mov         qword ptr [rdi],0
                    00
  00000001400012BD: 4C 89 25 5C 5D 00  mov         qword ptr [0000000140007020h],r12
                    00
  00000001400012C4: E8 37 02 00 00     call        0000000140001500
  00000001400012C9: 48 8B 05 F0 30 00  mov         rax,qword ptr [00000001400043C0h]
                    00
  00000001400012D0: 4C 8B 05 41 5D 00  mov         r8,qword ptr [0000000140007018h]
                    00
  00000001400012D7: 8B 0D 4B 5D 00 00  mov         ecx,dword ptr [0000000140007028h]
  00000001400012DD: 48 8B 00           mov         rax,qword ptr [rax]
  00000001400012E0: 4C 89 00           mov         qword ptr [rax],r8
  00000001400012E3: 48 8B 15 36 5D 00  mov         rdx,qword ptr [0000000140007020h]
                    00
  00000001400012EA: E8 21 16 00 00     call        0000000140002910
  00000001400012EF: 8B 0D 17 5D 00 00  mov         ecx,dword ptr [000000014000700Ch]
  00000001400012F5: 89 05 15 5D 00 00  mov         dword ptr [0000000140007010h],eax
  00000001400012FB: 85 C9              test        ecx,ecx
  00000001400012FD: 0F 84 C5 00 00 00  je          00000001400013C8
  0000000140001303: 8B 15 FF 5C 00 00  mov         edx,dword ptr [0000000140007008h]
  0000000140001309: 85 D2              test        edx,edx
  000000014000130B: 74 73              je          0000000140001380
  000000014000130D: 48 83 C4 20        add         rsp,20h
  0000000140001311: 5B                 pop         rbx
  0000000140001312: 5E                 pop         rsi
  0000000140001313: 5F                 pop         rdi
  0000000140001314: 5D                 pop         rbp
  0000000140001315: 41 5C              pop         r12
  0000000140001317: C3                 ret
  0000000140001318: 0F 1F 84 00 00 00  nop         dword ptr [rax+rax+0000000000000000h]
                    00 00
  0000000140001320: 48 8B 35 29 31 00  mov         rsi,qword ptr [0000000140004450h]
                    00
  0000000140001327: BF 01 00 00 00     mov         edi,1
  000000014000132C: 8B 06              mov         eax,dword ptr [rsi]
  000000014000132E: 83 F8 01           cmp         eax,1
  0000000140001331: 0F 85 AA FE FF FF  jne         00000001400011E1
  0000000140001337: B9 1F 00 00 00     mov         ecx,1Fh
  000000014000133C: E8 3F 13 00 00     call        0000000140002680
  0000000140001341: 8B 06              mov         eax,dword ptr [rsi]
  0000000140001343: 83 F8 01           cmp         eax,1
  0000000140001346: 0F 85 B4 FE FF FF  jne         0000000140001200
  000000014000134C: 48 8B 15 1D 31 00  mov         rdx,qword ptr [0000000140004470h]
                    00
  0000000140001353: 48 8B 0D 06 31 00  mov         rcx,qword ptr [0000000140004460h]
                    00
  000000014000135A: E8 D9 14 00 00     call        0000000140002838
  000000014000135F: 85 FF              test        edi,edi
  0000000140001361: C7 06 02 00 00 00  mov         dword ptr [rsi],2
  0000000140001367: 0F 85 9B FE FF FF  jne         0000000140001208
  000000014000136D: 31 C0              xor         eax,eax
  000000014000136F: 48 87 03           xchg        rax,qword ptr [rbx]
  0000000140001372: E9 91 FE FF FF     jmp         0000000140001208
  0000000140001377: 66 0F 1F 84 00 00  nop         word ptr [rax+rax+0000000000000000h]
                    00 00 00
  0000000140001380: E8 73 14 00 00     call        00000001400027F8
  0000000140001385: 8B 05 85 5C 00 00  mov         eax,dword ptr [0000000140007010h]
  000000014000138B: 48 83 C4 20        add         rsp,20h
  000000014000138F: 5B                 pop         rbx
  0000000140001390: 5E                 pop         rsi
  0000000140001391: 5F                 pop         rdi
  0000000140001392: 5D                 pop         rbp
  0000000140001393: 41 5C              pop         r12
  0000000140001395: C3                 ret
  0000000140001396: 66 2E 0F 1F 84 00  nop         word ptr cs:[rax+rax+0000000000000000h]
                    00 00 00 00
  00000001400013A0: 48 8B 15 E9 30 00  mov         rdx,qword ptr [0000000140004490h]
                    00
  00000001400013A7: C7 06 01 00 00 00  mov         dword ptr [rsi],1
  00000001400013AD: 48 8B 0D CC 30 00  mov         rcx,qword ptr [0000000140004480h]
                    00
  00000001400013B4: E8 7F 14 00 00     call        0000000140002838
  00000001400013B9: E9 37 FE FF FF     jmp         00000001400011F5
  00000001400013BE: 66 90              nop
  00000001400013C0: 48 89 C7           mov         rdi,rax
  00000001400013C3: E9 EE FE FF FF     jmp         00000001400012B6
  00000001400013C8: 89 C1              mov         ecx,eax
  00000001400013CA: E8 89 14 00 00     call        0000000140002858
  00000001400013CF: 90                 nop
  00000001400013D0: 48 83 EC 28        sub         rsp,28h
  00000001400013D4: 48 8B 05 05 30 00  mov         rax,qword ptr [00000001400043E0h]
                    00
  00000001400013DB: C7 00 01 00 00 00  mov         dword ptr [rax],1
  00000001400013E1: E8 9A FD FF FF     call        0000000140001180
  00000001400013E6: 90                 nop
  00000001400013E7: 90                 nop
  00000001400013E8: 48 83 C4 28        add         rsp,28h
  00000001400013EC: C3                 ret
  00000001400013ED: 0F 1F 00           nop         dword ptr [rax]
  00000001400013F0: 48 83 EC 28        sub         rsp,28h
  00000001400013F4: 48 8B 05 E5 2F 00  mov         rax,qword ptr [00000001400043E0h]
                    00
  00000001400013FB: C7 00 00 00 00 00  mov         dword ptr [rax],0
  0000000140001401: E8 7A FD FF FF     call        0000000140001180
  0000000140001406: 90                 nop
  0000000140001407: 90                 nop
  0000000140001408: 48 83 C4 28        add         rsp,28h
  000000014000140C: C3                 ret
  000000014000140D: 0F 1F 00           nop         dword ptr [rax]
  0000000140001410: 48 83 EC 28        sub         rsp,28h
  0000000140001414: E8 27 12 00 00     call        0000000140002640
  0000000140001419: 48 83 F8 01        cmp         rax,1
  000000014000141D: 19 C0              sbb         eax,eax
  000000014000141F: 48 83 C4 28        add         rsp,28h
  0000000140001423: C3                 ret
  0000000140001424: 90                 nop
  0000000140001425: 90                 nop
  0000000140001426: 90                 nop
  0000000140001427: 90                 nop
  0000000140001428: 90                 nop
  0000000140001429: 90                 nop
  000000014000142A: 90                 nop
  000000014000142B: 90                 nop
  000000014000142C: 90                 nop
  000000014000142D: 90                 nop
  000000014000142E: 90                 nop
  000000014000142F: 90                 nop
  0000000140001430: 48 8D 0D 09 00 00  lea         rcx,[0000000140001440h]
                    00
  0000000140001437: E9 D4 FF FF FF     jmp         0000000140001410
  000000014000143C: 0F 1F 40 00        nop         dword ptr [rax]
  0000000140001440: C3                 ret
  0000000140001441: 90                 nop
  0000000140001442: 90                 nop
  0000000140001443: 90                 nop
  0000000140001444: 90                 nop
  0000000140001445: 90                 nop
  0000000140001446: 90                 nop
  0000000140001447: 90                 nop
  0000000140001448: 90                 nop
  0000000140001449: 90                 nop
  000000014000144A: 90                 nop
  000000014000144B: 90                 nop
  000000014000144C: 90                 nop
  000000014000144D: 90                 nop
  000000014000144E: 90                 nop
  000000014000144F: 90                 nop
  0000000140001450: 48 83 EC 28        sub         rsp,28h
  0000000140001454: 48 8B 05 A5 1B 00  mov         rax,qword ptr [0000000140003000h]
                    00
  000000014000145B: 48 8B 00           mov         rax,qword ptr [rax]
  000000014000145E: 48 85 C0           test        rax,rax
  0000000140001461: 74 22              je          0000000140001485
  0000000140001463: 0F 1F 44 00 00     nop         dword ptr [rax+rax]
  0000000140001468: FF D0              call        rax
  000000014000146A: 48 8B 05 8F 1B 00  mov         rax,qword ptr [0000000140003000h]
                    00
  0000000140001471: 48 8D 50 08        lea         rdx,[rax+8]
  0000000140001475: 48 8B 40 08        mov         rax,qword ptr [rax+8]
  0000000140001479: 48 89 15 80 1B 00  mov         qword ptr [0000000140003000h],rdx
                    00
  0000000140001480: 48 85 C0           test        rax,rax
  0000000140001483: 75 E3              jne         0000000140001468
  0000000140001485: 48 83 C4 28        add         rsp,28h
  0000000140001489: C3                 ret
  000000014000148A: 66 0F 1F 44 00 00  nop         word ptr [rax+rax]
  0000000140001490: 56                 push        rsi
  0000000140001491: 53                 push        rbx
  0000000140001492: 48 83 EC 28        sub         rsp,28h
  0000000140001496: 48 8B 15 D3 2E 00  mov         rdx,qword ptr [0000000140004370h]
                    00
  000000014000149D: 48 8B 02           mov         rax,qword ptr [rdx]
  00000001400014A0: 83 F8 FF           cmp         eax,0FFFFFFFFh
  00000001400014A3: 89 C1              mov         ecx,eax
  00000001400014A5: 74 39              je          00000001400014E0
  00000001400014A7: 85 C9              test        ecx,ecx
  00000001400014A9: 74 20              je          00000001400014CB
  00000001400014AB: 89 C8              mov         eax,ecx
  00000001400014AD: 83 E9 01           sub         ecx,1
  00000001400014B0: 48 8D 1C C2        lea         rbx,[rdx+rax*8]
  00000001400014B4: 48 29 C8           sub         rax,rcx
  00000001400014B7: 48 8D 74 C2 F8     lea         rsi,[rdx+rax*8-8]
  00000001400014BC: 0F 1F 40 00        nop         dword ptr [rax]
  00000001400014C0: FF 13              call        qword ptr [rbx]
  00000001400014C2: 48 83 EB 08        sub         rbx,8
  00000001400014C6: 48 39 F3           cmp         rbx,rsi
  00000001400014C9: 75 F5              jne         00000001400014C0
  00000001400014CB: 48 8D 0D 7E FF FF  lea         rcx,[0000000140001450h]
                    FF
  00000001400014D2: 48 83 C4 28        add         rsp,28h
  00000001400014D6: 5B                 pop         rbx
  00000001400014D7: 5E                 pop         rsi
  00000001400014D8: E9 33 FF FF FF     jmp         0000000140001410
  00000001400014DD: 0F 1F 00           nop         dword ptr [rax]
  00000001400014E0: 31 C0              xor         eax,eax
  00000001400014E2: 66 0F 1F 44 00 00  nop         word ptr [rax+rax]
  00000001400014E8: 44 8D 40 01        lea         r8d,[rax+1]
  00000001400014EC: 89 C1              mov         ecx,eax
  00000001400014EE: 4A 83 3C C2 00     cmp         qword ptr [rdx+r8*8],0
  00000001400014F3: 4C 89 C0           mov         rax,r8
  00000001400014F6: 75 F0              jne         00000001400014E8
  00000001400014F8: EB AD              jmp         00000001400014A7
  00000001400014FA: 66 0F 1F 44 00 00  nop         word ptr [rax+rax]
  0000000140001500: 8B 05 2A 5B 00 00  mov         eax,dword ptr [0000000140007030h]
  0000000140001506: 85 C0              test        eax,eax
  0000000140001508: 74 06              je          0000000140001510
  000000014000150A: C3                 ret
  000000014000150B: 0F 1F 44 00 00     nop         dword ptr [rax+rax]
  0000000140001510: C7 05 16 5B 00 00  mov         dword ptr [0000000140007030h],1
                    01 00 00 00
  000000014000151A: E9 71 FF FF FF     jmp         0000000140001490
  000000014000151F: 90                 nop
  0000000140001520: 31 C0              xor         eax,eax
  0000000140001522: C3                 ret
  0000000140001523: 90                 nop
  0000000140001524: 90                 nop
  0000000140001525: 90                 nop
  0000000140001526: 90                 nop
  0000000140001527: 90                 nop
  0000000140001528: 90                 nop
  0000000140001529: 90                 nop
  000000014000152A: 90                 nop
  000000014000152B: 90                 nop
  000000014000152C: 90                 nop
  000000014000152D: 90                 nop
  000000014000152E: 90                 nop
  000000014000152F: 90                 nop
  0000000140001530: 48 83 EC 28        sub         rsp,28h
  0000000140001534: 83 FA 03           cmp         edx,3
  0000000140001537: 74 17              je          0000000140001550
  0000000140001539: 85 D2              test        edx,edx
  000000014000153B: 74 13              je          0000000140001550
  000000014000153D: B8 01 00 00 00     mov         eax,1
  0000000140001542: 48 83 C4 28        add         rsp,28h
  0000000140001546: C3                 ret
  0000000140001547: 66 0F 1F 84 00 00  nop         word ptr [rax+rax+0000000000000000h]
                    00 00 00
  0000000140001550: E8 5B 0A 00 00     call        0000000140001FB0
  0000000140001555: B8 01 00 00 00     mov         eax,1
  000000014000155A: 48 83 C4 28        add         rsp,28h
  000000014000155E: C3                 ret
  000000014000155F: 90                 nop
  0000000140001560: 56                 push        rsi
  0000000140001561: 53                 push        rbx
  0000000140001562: 48 83 EC 28        sub         rsp,28h
  0000000140001566: 48 8B 05 E3 2D 00  mov         rax,qword ptr [0000000140004350h]
                    00
  000000014000156D: 83 38 02           cmp         dword ptr [rax],2
  0000000140001570: 74 06              je          0000000140001578
  0000000140001572: C7 00 02 00 00 00  mov         dword ptr [rax],2
  0000000140001578: 83 FA 02           cmp         edx,2
  000000014000157B: 74 13              je          0000000140001590
  000000014000157D: 83 FA 01           cmp         edx,1
  0000000140001580: 74 4E              je          00000001400015D0
  0000000140001582: B8 01 00 00 00     mov         eax,1
  0000000140001587: 48 83 C4 28        add         rsp,28h
  000000014000158B: 5B                 pop         rbx
  000000014000158C: 5E                 pop         rsi
  000000014000158D: C3                 ret
  000000014000158E: 66 90              nop
  0000000140001590: 48 8D 1D C1 7A 00  lea         rbx,[0000000140009058h]
                    00
  0000000140001597: 48 8D 35 BA 7A 00  lea         rsi,[0000000140009058h]
                    00
  000000014000159E: 48 39 DE           cmp         rsi,rbx
  00000001400015A1: 74 DF              je          0000000140001582
  00000001400015A3: 0F 1F 44 00 00     nop         dword ptr [rax+rax]
  00000001400015A8: 48 8B 03           mov         rax,qword ptr [rbx]
  00000001400015AB: 48 85 C0           test        rax,rax
  00000001400015AE: 74 02              je          00000001400015B2
  00000001400015B0: FF D0              call        rax
  00000001400015B2: 48 83 C3 08        add         rbx,8
  00000001400015B6: 48 39 DE           cmp         rsi,rbx
  00000001400015B9: 75 ED              jne         00000001400015A8
  00000001400015BB: B8 01 00 00 00     mov         eax,1
  00000001400015C0: 48 83 C4 28        add         rsp,28h
  00000001400015C4: 5B                 pop         rbx
  00000001400015C5: 5E                 pop         rsi
  00000001400015C6: C3                 ret
  00000001400015C7: 66 0F 1F 84 00 00  nop         word ptr [rax+rax+0000000000000000h]
                    00 00 00
  00000001400015D0: E8 DB 09 00 00     call        0000000140001FB0
  00000001400015D5: B8 01 00 00 00     mov         eax,1
  00000001400015DA: 48 83 C4 28        add         rsp,28h
  00000001400015DE: 5B                 pop         rbx
  00000001400015DF: 5E                 pop         rsi
  00000001400015E0: C3                 ret
  00000001400015E1: 66 66 2E 0F 1F 84  nop         word ptr cs:[rax+rax+0000000000000000h]
                    00 00 00 00 00
  00000001400015EC: 0F 1F 40 00        nop         dword ptr [rax]
  00000001400015F0: 31 C0              xor         eax,eax
  00000001400015F2: C3                 ret
  00000001400015F3: 90                 nop
  00000001400015F4: 90                 nop
  00000001400015F5: 90                 nop
  00000001400015F6: 90                 nop
  00000001400015F7: 90                 nop
  00000001400015F8: 90                 nop
  00000001400015F9: 90                 nop
  00000001400015FA: 90                 nop
  00000001400015FB: 90                 nop
  00000001400015FC: 90                 nop
  00000001400015FD: 90                 nop
  00000001400015FE: 90                 nop
  00000001400015FF: 90                 nop
  0000000140001600: 56                 push        rsi
  0000000140001601: 53                 push        rbx
  0000000140001602: 48 83 EC 78        sub         rsp,78h
  0000000140001606: 0F 29 74 24 40     movaps      xmmword ptr [rsp+40h],xmm6
  000000014000160B: 0F 29 7C 24 50     movaps      xmmword ptr [rsp+50h],xmm7
  0000000140001610: 44 0F 29 44 24 60  movaps      xmmword ptr [rsp+60h],xmm8
  0000000140001616: 83 39 06           cmp         dword ptr [rcx],6
  0000000140001619: 0F 87 CD 00 00 00  ja          00000001400016EC
  000000014000161F: 8B 01              mov         eax,dword ptr [rcx]
  0000000140001621: 48 8D 15 5C 2B 00  lea         rdx,[0000000140004184h]
                    00
  0000000140001628: 48 63 04 82        movsxd      rax,dword ptr [rdx+rax*4]
  000000014000162C: 48 01 D0           add         rax,rdx
  000000014000162F: FF E0              jmp         rax
  0000000140001631: 0F 1F 80 00 00 00  nop         dword ptr [rax+0000000000000000h]
                    00
  0000000140001638: 48 8D 1D 40 2A 00  lea         rbx,[000000014000407Fh]
                    00
  000000014000163F: 48 8B 71 08        mov         rsi,qword ptr [rcx+8]
  0000000140001643: F2 44 0F 10 41 20  movsd       xmm8,mmword ptr [rcx+20h]
  0000000140001649: F2 0F 10 79 18     movsd       xmm7,mmword ptr [rcx+18h]
  000000014000164E: F2 0F 10 71 10     movsd       xmm6,mmword ptr [rcx+10h]
  0000000140001653: B9 02 00 00 00     mov         ecx,2
  0000000140001658: E8 43 11 00 00     call        00000001400027A0
  000000014000165D: F2 44 0F 11 44 24  movsd       mmword ptr [rsp+30h],xmm8
                    30
  0000000140001664: 49 89 F1           mov         r9,rsi
  0000000140001667: 49 89 D8           mov         r8,rbx
  000000014000166A: F2 0F 11 7C 24 28  movsd       mmword ptr [rsp+28h],xmm7
  0000000140001670: 48 89 C1           mov         rcx,rax
  0000000140001673: F2 0F 11 74 24 20  movsd       mmword ptr [rsp+20h],xmm6
  0000000140001679: 48 8D 15 D8 2A 00  lea         rdx,[0000000140004158h]
                    00
  0000000140001680: E8 8B 0E 00 00     call        0000000140002510
  0000000140001685: 90                 nop
  0000000140001686: 0F 28 74 24 40     movaps      xmm6,xmmword ptr [rsp+40h]
  000000014000168B: 31 C0              xor         eax,eax
  000000014000168D: 0F 28 7C 24 50     movaps      xmm7,xmmword ptr [rsp+50h]
  0000000140001692: 44 0F 28 44 24 60  movaps      xmm8,xmmword ptr [rsp+60h]
  0000000140001698: 48 83 C4 78        add         rsp,78h
  000000014000169C: 5B                 pop         rbx
  000000014000169D: 5E                 pop         rsi
  000000014000169E: C3                 ret
  000000014000169F: 90                 nop
  00000001400016A0: 48 8D 1D B9 29 00  lea         rbx,[0000000140004060h]
                    00
  00000001400016A7: EB 96              jmp         000000014000163F
  00000001400016A9: 0F 1F 80 00 00 00  nop         dword ptr [rax+0000000000000000h]
                    00
  00000001400016B0: 48 8D 1D 09 2A 00  lea         rbx,[00000001400040C0h]
                    00
  00000001400016B7: EB 86              jmp         000000014000163F
  00000001400016B9: 0F 1F 80 00 00 00  nop         dword ptr [rax+0000000000000000h]
                    00
  00000001400016C0: 48 8D 1D D9 29 00  lea         rbx,[00000001400040A0h]
                    00
  00000001400016C7: E9 73 FF FF FF     jmp         000000014000163F
  00000001400016CC: 0F 1F 40 00        nop         dword ptr [rax]
  00000001400016D0: 48 8D 1D 39 2A 00  lea         rbx,[0000000140004110h]
                    00
  00000001400016D7: E9 63 FF FF FF     jmp         000000014000163F
  00000001400016DC: 0F 1F 40 00        nop         dword ptr [rax]
  00000001400016E0: 48 8D 1D 01 2A 00  lea         rbx,[00000001400040E8h]
                    00
  00000001400016E7: E9 53 FF FF FF     jmp         000000014000163F
  00000001400016EC: 48 8D 1D 53 2A 00  lea         rbx,[0000000140004146h]
                    00
  00000001400016F3: E9 47 FF FF FF     jmp         000000014000163F
  00000001400016F8: 90                 nop
  00000001400016F9: 90                 nop
  00000001400016FA: 90                 nop
  00000001400016FB: 90                 nop
  00000001400016FC: 90                 nop
  00000001400016FD: 90                 nop
  00000001400016FE: 90                 nop
  00000001400016FF: 90                 nop
  0000000140001700: DB E3              fninit
  0000000140001702: C3                 ret
  0000000140001703: 90                 nop
  0000000140001704: 90                 nop
  0000000140001705: 90                 nop
  0000000140001706: 90                 nop
  0000000140001707: 90                 nop
  0000000140001708: 90                 nop
  0000000140001709: 90                 nop
  000000014000170A: 90                 nop
  000000014000170B: 90                 nop
  000000014000170C: 90                 nop
  000000014000170D: 90                 nop
  000000014000170E: 90                 nop
  000000014000170F: 90                 nop
  0000000140001710: 56                 push        rsi
  0000000140001711: 53                 push        rbx
  0000000140001712: 48 83 EC 38        sub         rsp,38h
  0000000140001716: 48 8D 44 24 58     lea         rax,[rsp+58h]
  000000014000171B: 48 89 CB           mov         rbx,rcx
  000000014000171E: B9 02 00 00 00     mov         ecx,2
  0000000140001723: 48 89 54 24 58     mov         qword ptr [rsp+58h],rdx
  0000000140001728: 4C 89 44 24 60     mov         qword ptr [rsp+60h],r8
  000000014000172D: 4C 89 4C 24 68     mov         qword ptr [rsp+68h],r9
  0000000140001732: 48 89 44 24 28     mov         qword ptr [rsp+28h],rax
  0000000140001737: E8 64 10 00 00     call        00000001400027A0
  000000014000173C: 41 B8 1B 00 00 00  mov         r8d,1Bh
  0000000140001742: BA 01 00 00 00     mov         edx,1
  0000000140001747: 48 8D 0D 52 2A 00  lea         rcx,[00000001400041A0h]
                    00
  000000014000174E: 49 89 C1           mov         r9,rax
  0000000140001751: E8 72 10 00 00     call        00000001400027C8
  0000000140001756: 48 8B 74 24 28     mov         rsi,qword ptr [rsp+28h]
  000000014000175B: B9 02 00 00 00     mov         ecx,2
  0000000140001760: E8 3B 10 00 00     call        00000001400027A0
  0000000140001765: 48 89 DA           mov         rdx,rbx
  0000000140001768: 48 89 C1           mov         rcx,rax
  000000014000176B: 49 89 F0           mov         r8,rsi
  000000014000176E: E8 7D 0D 00 00     call        00000001400024F0
  0000000140001773: E8 D8 10 00 00     call        0000000140002850
  0000000140001778: 90                 nop
  0000000140001779: 0F 1F 80 00 00 00  nop         dword ptr [rax+0000000000000000h]
                    00
  0000000140001780: 57                 push        rdi
  0000000140001781: 56                 push        rsi
  0000000140001782: 53                 push        rbx
  0000000140001783: 48 83 EC 50        sub         rsp,50h
  0000000140001787: 48 63 35 06 59 00  movsxd      rsi,dword ptr [0000000140007094h]
                    00
  000000014000178E: 85 F6              test        esi,esi
  0000000140001790: 48 89 CB           mov         rbx,rcx
  0000000140001793: 0F 8E 17 01 00 00  jle         00000001400018B0
  0000000140001799: 48 8B 05 F8 58 00  mov         rax,qword ptr [0000000140007098h]
                    00
  00000001400017A0: 45 31 C9           xor         r9d,r9d
  00000001400017A3: 48 83 C0 18        add         rax,18h
  00000001400017A7: 66 0F 1F 84 00 00  nop         word ptr [rax+rax+0000000000000000h]
                    00 00 00
  00000001400017B0: 4C 8B 00           mov         r8,qword ptr [rax]
  00000001400017B3: 4C 39 C3           cmp         rbx,r8
  00000001400017B6: 72 13              jb          00000001400017CB
  00000001400017B8: 48 8B 50 08        mov         rdx,qword ptr [rax+8]
  00000001400017BC: 8B 52 08           mov         edx,dword ptr [rdx+8]
  00000001400017BF: 49 01 D0           add         r8,rdx
  00000001400017C2: 4C 39 C3           cmp         rbx,r8
  00000001400017C5: 0F 82 8A 00 00 00  jb          0000000140001855
  00000001400017CB: 41 83 C1 01        add         r9d,1
  00000001400017CF: 48 83 C0 28        add         rax,28h
  00000001400017D3: 41 39 F1           cmp         r9d,esi
  00000001400017D6: 75 D8              jne         00000001400017B0
  00000001400017D8: 48 89 D9           mov         rcx,rbx
  00000001400017DB: E8 F0 09 00 00     call        00000001400021D0
  00000001400017E0: 48 85 C0           test        rax,rax
  00000001400017E3: 48 89 C7           mov         rdi,rax
  00000001400017E6: 0F 84 E6 00 00 00  je          00000001400018D2
  00000001400017EC: 48 8B 05 A5 58 00  mov         rax,qword ptr [0000000140007098h]
                    00
  00000001400017F3: 48 8D 1C B6        lea         rbx,[rsi+rsi*4]
  00000001400017F7: 48 C1 E3 03        shl         rbx,3
  00000001400017FB: 48 01 D8           add         rax,rbx
  00000001400017FE: 48 89 78 20        mov         qword ptr [rax+20h],rdi
  0000000140001802: C7 00 00 00 00 00  mov         dword ptr [rax],0
  0000000140001808: E8 03 0B 00 00     call        0000000140002310
  000000014000180D: 8B 57 0C           mov         edx,dword ptr [rdi+0Ch]
  0000000140001810: 41 B8 30 00 00 00  mov         r8d,30h
  0000000140001816: 48 8D 0C 10        lea         rcx,[rax+rdx]
  000000014000181A: 48 8B 05 77 58 00  mov         rax,qword ptr [0000000140007098h]
                    00
  0000000140001821: 48 8D 54 24 20     lea         rdx,[rsp+20h]
  0000000140001826: 48 89 4C 18 18     mov         qword ptr [rax+rbx+18h],rcx
  000000014000182B: FF 15 AF 6A 00 00  call        qword ptr [00000001400082E0h]
  0000000140001831: 48 85 C0           test        rax,rax
  0000000140001834: 0F 84 7D 00 00 00  je          00000001400018B7
  000000014000183A: 8B 44 24 44        mov         eax,dword ptr [rsp+44h]
  000000014000183E: 8D 50 C0           lea         edx,[rax-40h]
  0000000140001841: 83 E2 BF           and         edx,0FFFFFFBFh
  0000000140001844: 74 08              je          000000014000184E
  0000000140001846: 8D 50 FC           lea         edx,[rax-4]
  0000000140001849: 83 E2 FB           and         edx,0FFFFFFFBh
  000000014000184C: 75 12              jne         0000000140001860
  000000014000184E: 83 05 3F 58 00 00  add         dword ptr [0000000140007094h],1
                    01
  0000000140001855: 48 83 C4 50        add         rsp,50h
  0000000140001859: 5B                 pop         rbx
  000000014000185A: 5E                 pop         rsi
  000000014000185B: 5F                 pop         rdi
  000000014000185C: C3                 ret
  000000014000185D: 0F 1F 00           nop         dword ptr [rax]
  0000000140001860: 83 F8 02           cmp         eax,2
  0000000140001863: 41 B8 40 00 00 00  mov         r8d,40h
  0000000140001869: B8 04 00 00 00     mov         eax,4
  000000014000186E: 48 8B 4C 24 20     mov         rcx,qword ptr [rsp+20h]
  0000000140001873: 44 0F 44 C0        cmove       r8d,eax
  0000000140001877: 48 8B 54 24 38     mov         rdx,qword ptr [rsp+38h]
  000000014000187C: 48 03 1D 15 58 00  add         rbx,qword ptr [0000000140007098h]
                    00
  0000000140001883: 49 89 D9           mov         r9,rbx
  0000000140001886: 48 89 4B 08        mov         qword ptr [rbx+8],rcx
  000000014000188A: 48 89 53 10        mov         qword ptr [rbx+10h],rdx
  000000014000188E: FF 15 44 6A 00 00  call        qword ptr [00000001400082D8h]
  0000000140001894: 85 C0              test        eax,eax
  0000000140001896: 75 B6              jne         000000014000184E
  0000000140001898: FF 15 0A 6A 00 00  call        qword ptr [00000001400082A8h]
  000000014000189E: 48 8D 0D 73 29 00  lea         rcx,[0000000140004218h]
                    00
  00000001400018A5: 89 C2              mov         edx,eax
  00000001400018A7: E8 64 FE FF FF     call        0000000140001710
  00000001400018AC: 0F 1F 40 00        nop         dword ptr [rax]
  00000001400018B0: 31 F6              xor         esi,esi
  00000001400018B2: E9 21 FF FF FF     jmp         00000001400017D8
  00000001400018B7: 48 8B 05 DA 57 00  mov         rax,qword ptr [0000000140007098h]
                    00
  00000001400018BE: 48 8D 0D 1B 29 00  lea         rcx,[00000001400041E0h]
                    00
  00000001400018C5: 8B 57 08           mov         edx,dword ptr [rdi+8]
  00000001400018C8: 4C 8B 44 18 18     mov         r8,qword ptr [rax+rbx+18h]
  00000001400018CD: E8 3E FE FF FF     call        0000000140001710
  00000001400018D2: 48 8D 0D E7 28 00  lea         rcx,[00000001400041C0h]
                    00
  00000001400018D9: 48 89 DA           mov         rdx,rbx
  00000001400018DC: E8 2F FE FF FF     call        0000000140001710
  00000001400018E1: 90                 nop
  00000001400018E2: 66 66 2E 0F 1F 84  nop         word ptr cs:[rax+rax+0000000000000000h]
                    00 00 00 00 00
  00000001400018ED: 0F 1F 00           nop         dword ptr [rax]
  00000001400018F0: 55                 push        rbp
  00000001400018F1: 41 57              push        r15
  00000001400018F3: 41 56              push        r14
  00000001400018F5: 41 55              push        r13
  00000001400018F7: 41 54              push        r12
  00000001400018F9: 57                 push        rdi
  00000001400018FA: 56                 push        rsi
  00000001400018FB: 53                 push        rbx
  00000001400018FC: 48 83 EC 48        sub         rsp,48h
  0000000140001900: 48 8D 6C 24 40     lea         rbp,[rsp+40h]
  0000000140001905: 8B 3D 85 57 00 00  mov         edi,dword ptr [0000000140007090h]
  000000014000190B: 85 FF              test        edi,edi
  000000014000190D: 74 11              je          0000000140001920
  000000014000190F: 48 8D 65 08        lea         rsp,[rbp+8]
  0000000140001913: 5B                 pop         rbx
  0000000140001914: 5E                 pop         rsi
  0000000140001915: 5F                 pop         rdi
  0000000140001916: 41 5C              pop         r12
  0000000140001918: 41 5D              pop         r13
  000000014000191A: 41 5E              pop         r14
  000000014000191C: 41 5F              pop         r15
  000000014000191E: 5D                 pop         rbp
  000000014000191F: C3                 ret
  0000000140001920: C7 05 66 57 00 00  mov         dword ptr [0000000140007090h],1
                    01 00 00 00
  000000014000192A: E8 21 09 00 00     call        0000000140002250
  000000014000192F: 48 98              cdqe
  0000000140001931: 48 8D 04 80        lea         rax,[rax+rax*4]
  0000000140001935: 48 8D 04 C5 0F 00  lea         rax,[rax*8+000000000000000Fh]
                    00 00
  000000014000193D: 48 83 E0 F0        and         rax,0FFFFFFFFFFFFFFF0h
  0000000140001941: E8 6A 0B 00 00     call        00000001400024B0
  0000000140001946: 4C 8B 2D 33 2A 00  mov         r13,qword ptr [0000000140004380h]
                    00
  000000014000194D: C7 05 3D 57 00 00  mov         dword ptr [0000000140007094h],0
                    00 00 00 00
  0000000140001957: 48 8B 1D 32 2A 00  mov         rbx,qword ptr [0000000140004390h]
                    00
  000000014000195E: 48 29 C4           sub         rsp,rax
  0000000140001961: 48 8D 44 24 30     lea         rax,[rsp+30h]
  0000000140001966: 48 89 05 2B 57 00  mov         qword ptr [0000000140007098h],rax
                    00
  000000014000196D: 4C 89 E8           mov         rax,r13
  0000000140001970: 48 29 D8           sub         rax,rbx
  0000000140001973: 48 83 F8 07        cmp         rax,7
  0000000140001977: 7E 96              jle         000000014000190F
  0000000140001979: 48 83 F8 0B        cmp         rax,0Bh
  000000014000197D: 8B 13              mov         edx,dword ptr [rbx]
  000000014000197F: 0F 8F 83 01 00 00  jg          0000000140001B08
  0000000140001985: 8B 03              mov         eax,dword ptr [rbx]
  0000000140001987: 85 C0              test        eax,eax
  0000000140001989: 0F 85 71 02 00 00  jne         0000000140001C00
  000000014000198F: 8B 43 04           mov         eax,dword ptr [rbx+4]
  0000000140001992: 85 C0              test        eax,eax
  0000000140001994: 0F 85 66 02 00 00  jne         0000000140001C00
  000000014000199A: 8B 53 08           mov         edx,dword ptr [rbx+8]
  000000014000199D: 83 FA 01           cmp         edx,1
  00000001400019A0: 0F 85 9C 02 00 00  jne         0000000140001C42
  00000001400019A6: 48 83 C3 0C        add         rbx,0Ch
  00000001400019AA: 4C 39 EB           cmp         rbx,r13
  00000001400019AD: 0F 83 5C FF FF FF  jae         000000014000190F
  00000001400019B3: 4C 8B 25 F6 29 00  mov         r12,qword ptr [00000001400043B0h]
                    00
  00000001400019BA: 49 BF FF FF FF 7F  mov         r15,0FFFFFFFF7FFFFFFFh
                    FF FF FF FF
  00000001400019C4: EB 5D              jmp         0000000140001A23
  00000001400019C6: 66 2E 0F 1F 84 00  nop         word ptr cs:[rax+rax+0000000000000000h]
                    00 00 00 00
  00000001400019D0: 41 0F B6 36        movzx       esi,byte ptr [r14]
  00000001400019D4: 81 E1 C0 00 00 00  and         ecx,0C0h
  00000001400019DA: 40 84 F6           test        sil,sil
  00000001400019DD: 0F 89 05 02 00 00  jns         0000000140001BE8
  00000001400019E3: 48 81 CE 00 FF FF  or          rsi,0FFFFFFFFFFFFFF00h
                    FF
  00000001400019EA: 48 29 C6           sub         rsi,rax
  00000001400019ED: 4C 01 CE           add         rsi,r9
  00000001400019F0: 85 C9              test        ecx,ecx
  00000001400019F2: 75 17              jne         0000000140001A0B
  00000001400019F4: 48 81 FE FF 00 00  cmp         rsi,0FFh
                    00
  00000001400019FB: 0F 8F 4E 01 00 00  jg          0000000140001B4F
  0000000140001A01: 48 83 FE 80        cmp         rsi,0FFFFFFFFFFFFFF80h
  0000000140001A05: 0F 8C 44 01 00 00  jl          0000000140001B4F
  0000000140001A0B: 4C 89 F1           mov         rcx,r14
  0000000140001A0E: E8 6D FD FF FF     call        0000000140001780
  0000000140001A13: 41 88 36           mov         byte ptr [r14],sil
  0000000140001A16: 48 83 C3 0C        add         rbx,0Ch
  0000000140001A1A: 4C 39 EB           cmp         rbx,r13
  0000000140001A1D: 0F 83 8D 00 00 00  jae         0000000140001AB0
  0000000140001A23: 8B 4B 08           mov         ecx,dword ptr [rbx+8]
  0000000140001A26: 8B 03              mov         eax,dword ptr [rbx]
  0000000140001A28: 44 8B 43 04        mov         r8d,dword ptr [rbx+4]
  0000000140001A2C: 0F B6 D1           movzx       edx,cl
  0000000140001A2F: 4C 01 E0           add         rax,r12
  0000000140001A32: 83 FA 20           cmp         edx,20h
  0000000140001A35: 4C 8B 08           mov         r9,qword ptr [rax]
  0000000140001A38: 4F 8D 34 20        lea         r14,[r8+r12]
  0000000140001A3C: 0F 84 26 01 00 00  je          0000000140001B68
  0000000140001A42: 0F 87 E8 00 00 00  ja          0000000140001B30
  0000000140001A48: 83 FA 08           cmp         edx,8
  0000000140001A4B: 74 83              je          00000001400019D0
  0000000140001A4D: 83 FA 10           cmp         edx,10h
  0000000140001A50: 0F 85 E0 01 00 00  jne         0000000140001C36
  0000000140001A56: 41 0F B7 36        movzx       esi,word ptr [r14]
  0000000140001A5A: 81 E1 C0 00 00 00  and         ecx,0C0h
  0000000140001A60: 66 85 F6           test        si,si
  0000000140001A63: 0F 89 67 01 00 00  jns         0000000140001BD0
  0000000140001A69: 48 81 CE 00 00 FF  or          rsi,0FFFFFFFFFFFF0000h
                    FF
  0000000140001A70: 48 29 C6           sub         rsi,rax
  0000000140001A73: 4C 01 CE           add         rsi,r9
  0000000140001A76: 85 C9              test        ecx,ecx
  0000000140001A78: 75 1A              jne         0000000140001A94
  0000000140001A7A: 48 81 FE 00 80 FF  cmp         rsi,0FFFFFFFFFFFF8000h
                    FF
  0000000140001A81: 0F 8C C8 00 00 00  jl          0000000140001B4F
  0000000140001A87: 48 81 FE FF FF 00  cmp         rsi,0FFFFh
                    00
  0000000140001A8E: 0F 8F BB 00 00 00  jg          0000000140001B4F
  0000000140001A94: 4C 89 F1           mov         rcx,r14
  0000000140001A97: 48 83 C3 0C        add         rbx,0Ch
  0000000140001A9B: E8 E0 FC FF FF     call        0000000140001780
  0000000140001AA0: 4C 39 EB           cmp         rbx,r13
  0000000140001AA3: 66 41 89 36        mov         word ptr [r14],si
  0000000140001AA7: 0F 82 76 FF FF FF  jb          0000000140001A23
  0000000140001AAD: 0F 1F 00           nop         dword ptr [rax]
  0000000140001AB0: 8B 15 DE 55 00 00  mov         edx,dword ptr [0000000140007094h]
  0000000140001AB6: 85 D2              test        edx,edx
  0000000140001AB8: 0F 8E 51 FE FF FF  jle         000000014000190F
  0000000140001ABE: 48 8B 35 13 68 00  mov         rsi,qword ptr [00000001400082D8h]
                    00
  0000000140001AC5: 4C 8D 65 FC        lea         r12,[rbp-4]
  0000000140001AC9: 31 DB              xor         ebx,ebx
  0000000140001ACB: 0F 1F 44 00 00     nop         dword ptr [rax+rax]
  0000000140001AD0: 48 8B 05 C1 55 00  mov         rax,qword ptr [0000000140007098h]
                    00
  0000000140001AD7: 48 01 D8           add         rax,rbx
  0000000140001ADA: 44 8B 00           mov         r8d,dword ptr [rax]
  0000000140001ADD: 45 85 C0           test        r8d,r8d
  0000000140001AE0: 74 0D              je          0000000140001AEF
  0000000140001AE2: 48 8B 50 10        mov         rdx,qword ptr [rax+10h]
  0000000140001AE6: 4D 89 E1           mov         r9,r12
  0000000140001AE9: 48 8B 48 08        mov         rcx,qword ptr [rax+8]
  0000000140001AED: FF D6              call        rsi
  0000000140001AEF: 83 C7 01           add         edi,1
  0000000140001AF2: 48 83 C3 28        add         rbx,28h
  0000000140001AF6: 3B 3D 98 55 00 00  cmp         edi,dword ptr [0000000140007094h]
  0000000140001AFC: 7C D2              jl          0000000140001AD0
  0000000140001AFE: E9 0C FE FF FF     jmp         000000014000190F
  0000000140001B03: 0F 1F 44 00 00     nop         dword ptr [rax+rax]
  0000000140001B08: 85 D2              test        edx,edx
  0000000140001B0A: 0F 85 F0 00 00 00  jne         0000000140001C00
  0000000140001B10: 8B 43 04           mov         eax,dword ptr [rbx+4]
  0000000140001B13: 89 C2              mov         edx,eax
  0000000140001B15: 0B 53 08           or          edx,dword ptr [rbx+8]
  0000000140001B18: 0F 85 74 FE FF FF  jne         0000000140001992
  0000000140001B1E: 48 83 C3 0C        add         rbx,0Ch
  0000000140001B22: E9 5E FE FF FF     jmp         0000000140001985
  0000000140001B27: 66 0F 1F 84 00 00  nop         word ptr [rax+rax+0000000000000000h]
                    00 00 00
  0000000140001B30: 83 FA 40           cmp         edx,40h
  0000000140001B33: 0F 85 FD 00 00 00  jne         0000000140001C36
  0000000140001B39: 49 8B 36           mov         rsi,qword ptr [r14]
  0000000140001B3C: 48 29 C6           sub         rsi,rax
  0000000140001B3F: 4C 01 CE           add         rsi,r9
  0000000140001B42: 81 E1 C0 00 00 00  and         ecx,0C0h
  0000000140001B48: 75 66              jne         0000000140001BB0
  0000000140001B4A: 48 85 F6           test        rsi,rsi
  0000000140001B4D: 78 61              js          0000000140001BB0
  0000000140001B4F: 48 89 74 24 20     mov         qword ptr [rsp+20h],rsi
  0000000140001B54: 48 8D 0D 4D 27 00  lea         rcx,[00000001400042A8h]
                    00
  0000000140001B5B: 4D 89 F0           mov         r8,r14
  0000000140001B5E: E8 AD FB FF FF     call        0000000140001710
  0000000140001B63: 0F 1F 44 00 00     nop         dword ptr [rax+rax]
  0000000140001B68: 41 8B 36           mov         esi,dword ptr [r14]
  0000000140001B6B: 81 E1 C0 00 00 00  and         ecx,0C0h
  0000000140001B71: 85 F6              test        esi,esi
  0000000140001B73: 79 4B              jns         0000000140001BC0
  0000000140001B75: 49 BB 00 00 00 00  mov         r11,0FFFFFFFF00000000h
                    FF FF FF FF
  0000000140001B7F: 4C 09 DE           or          rsi,r11
  0000000140001B82: 48 29 C6           sub         rsi,rax
  0000000140001B85: 4C 01 CE           add         rsi,r9
  0000000140001B88: 85 C9              test        ecx,ecx
  0000000140001B8A: 75 0F              jne         0000000140001B9B
  0000000140001B8C: 4C 39 FE           cmp         rsi,r15
  0000000140001B8F: 7E BE              jle         0000000140001B4F
  0000000140001B91: B8 FF FF FF FF     mov         eax,0FFFFFFFFh
  0000000140001B96: 48 39 C6           cmp         rsi,rax
  0000000140001B99: 7F B4              jg          0000000140001B4F
  0000000140001B9B: 4C 89 F1           mov         rcx,r14
  0000000140001B9E: E8 DD FB FF FF     call        0000000140001780
  0000000140001BA3: 41 89 36           mov         dword ptr [r14],esi
  0000000140001BA6: E9 6B FE FF FF     jmp         0000000140001A16
  0000000140001BAB: 0F 1F 44 00 00     nop         dword ptr [rax+rax]
  0000000140001BB0: 4C 89 F1           mov         rcx,r14
  0000000140001BB3: E8 C8 FB FF FF     call        0000000140001780
  0000000140001BB8: 49 89 36           mov         qword ptr [r14],rsi
  0000000140001BBB: E9 56 FE FF FF     jmp         0000000140001A16
  0000000140001BC0: 48 29 C6           sub         rsi,rax
  0000000140001BC3: 4C 01 CE           add         rsi,r9
  0000000140001BC6: 85 C9              test        ecx,ecx
  0000000140001BC8: 74 C2              je          0000000140001B8C
  0000000140001BCA: EB CF              jmp         0000000140001B9B
  0000000140001BCC: 0F 1F 40 00        nop         dword ptr [rax]
  0000000140001BD0: 48 29 C6           sub         rsi,rax
  0000000140001BD3: 4C 01 CE           add         rsi,r9
  0000000140001BD6: 85 C9              test        ecx,ecx
  0000000140001BD8: 0F 84 9C FE FF FF  je          0000000140001A7A
  0000000140001BDE: E9 B1 FE FF FF     jmp         0000000140001A94
  0000000140001BE3: 0F 1F 44 00 00     nop         dword ptr [rax+rax]
  0000000140001BE8: 48 29 C6           sub         rsi,rax
  0000000140001BEB: 4C 01 CE           add         rsi,r9
  0000000140001BEE: 85 C9              test        ecx,ecx
  0000000140001BF0: 0F 84 FE FD FF FF  je          00000001400019F4
  0000000140001BF6: E9 10 FE FF FF     jmp         0000000140001A0B
  0000000140001BFB: 0F 1F 44 00 00     nop         dword ptr [rax+rax]
  0000000140001C00: 4C 39 EB           cmp         rbx,r13
  0000000140001C03: 0F 83 06 FD FF FF  jae         000000014000190F
  0000000140001C09: 4C 8B 35 A0 27 00  mov         r14,qword ptr [00000001400043B0h]
                    00
  0000000140001C10: 8B 73 04           mov         esi,dword ptr [rbx+4]
  0000000140001C13: 48 83 C3 08        add         rbx,8
  0000000140001C17: 44 8B 63 F8        mov         r12d,dword ptr [rbx-8]
  0000000140001C1B: 4C 01 F6           add         rsi,r14
  0000000140001C1E: 44 03 26           add         r12d,dword ptr [rsi]
  0000000140001C21: 48 89 F1           mov         rcx,rsi
  0000000140001C24: E8 57 FB FF FF     call        0000000140001780
  0000000140001C29: 4C 39 EB           cmp         rbx,r13
  0000000140001C2C: 44 89 26           mov         dword ptr [rsi],r12d
  0000000140001C2F: 72 DF              jb          0000000140001C10
  0000000140001C31: E9 7A FE FF FF     jmp         0000000140001AB0
  0000000140001C36: 48 8D 0D 3B 26 00  lea         rcx,[0000000140004278h]
                    00
  0000000140001C3D: E8 CE FA FF FF     call        0000000140001710
  0000000140001C42: 48 8D 0D F7 25 00  lea         rcx,[0000000140004240h]
                    00
  0000000140001C49: E8 C2 FA FF FF     call        0000000140001710
  0000000140001C4E: 90                 nop
  0000000140001C4F: 90                 nop
  0000000140001C50: 48 83 EC 58        sub         rsp,58h
  0000000140001C54: 48 8B 05 45 54 00  mov         rax,qword ptr [00000001400070A0h]
                    00
  0000000140001C5B: 48 85 C0           test        rax,rax
  0000000140001C5E: 66 0F 14 D3        unpcklpd    xmm2,xmm3
  0000000140001C62: 74 25              je          0000000140001C89
  0000000140001C64: F2 0F 10 84 24 80  movsd       xmm0,mmword ptr [rsp+0000000000000080h]
                    00 00 00
  0000000140001C6D: 89 4C 24 20        mov         dword ptr [rsp+20h],ecx
  0000000140001C71: 48 8D 4C 24 20     lea         rcx,[rsp+20h]
  0000000140001C76: 48 89 54 24 28     mov         qword ptr [rsp+28h],rdx
  0000000140001C7B: 0F 29 54 24 30     movaps      xmmword ptr [rsp+30h],xmm2
  0000000140001C80: F2 0F 11 44 24 40  movsd       mmword ptr [rsp+40h],xmm0
  0000000140001C86: FF D0              call        rax
  0000000140001C88: 90                 nop
  0000000140001C89: 48 83 C4 58        add         rsp,58h
  0000000140001C8D: C3                 ret
  0000000140001C8E: 66 90              nop
  0000000140001C90: 48 89 0D 09 54 00  mov         qword ptr [00000001400070A0h],rcx
                    00
  0000000140001C97: E9 E4 0B 00 00     jmp         0000000140002880
  0000000140001C9C: 90                 nop
  0000000140001C9D: 90                 nop
  0000000140001C9E: 90                 nop
  0000000140001C9F: 90                 nop
  0000000140001CA0: 53                 push        rbx
  0000000140001CA1: 48 83 EC 20        sub         rsp,20h
  0000000140001CA5: 48 8B 11           mov         rdx,qword ptr [rcx]
  0000000140001CA8: 8B 02              mov         eax,dword ptr [rdx]
  0000000140001CAA: 48 89 CB           mov         rbx,rcx
  0000000140001CAD: 89 C1              mov         ecx,eax
  0000000140001CAF: 81 E1 FF FF FF 20  and         ecx,20FFFFFFh
  0000000140001CB5: 81 F9 43 43 47 20  cmp         ecx,20474343h
  0000000140001CBB: 0F 84 9F 00 00 00  je          0000000140001D60
  0000000140001CC1: 3D 96 00 00 C0     cmp         eax,0C0000096h
  0000000140001CC6: 77 77              ja          0000000140001D3F
  0000000140001CC8: 3D 8B 00 00 C0     cmp         eax,0C000008Bh
  0000000140001CCD: 76 21              jbe         0000000140001CF0
  0000000140001CCF: 05 73 FF FF 3F     add         eax,3FFFFF73h
  0000000140001CD4: 83 F8 09           cmp         eax,9
  0000000140001CD7: 77 54              ja          0000000140001D2D
  0000000140001CD9: 48 8D 15 20 26 00  lea         rdx,[0000000140004300h]
                    00
  0000000140001CE0: 48 63 04 82        movsxd      rax,dword ptr [rdx+rax*4]
  0000000140001CE4: 48 01 D0           add         rax,rdx
  0000000140001CE7: FF E0              jmp         rax
  0000000140001CE9: 0F 1F 80 00 00 00  nop         dword ptr [rax+0000000000000000h]
                    00
  0000000140001CF0: 3D 05 00 00 C0     cmp         eax,0C0000005h
  0000000140001CF5: 0F 84 D5 00 00 00  je          0000000140001DD0
  0000000140001CFB: 76 3B              jbe         0000000140001D38
  0000000140001CFD: 3D 08 00 00 C0     cmp         eax,0C0000008h
  0000000140001D02: 74 29              je          0000000140001D2D
  0000000140001D04: 3D 1D 00 00 C0     cmp         eax,0C000001Dh
  0000000140001D09: 75 34              jne         0000000140001D3F
  0000000140001D0B: 31 D2              xor         edx,edx
  0000000140001D0D: B9 04 00 00 00     mov         ecx,4
  0000000140001D12: E8 49 0B 00 00     call        0000000140002860
  0000000140001D17: 48 83 F8 01        cmp         rax,1
  0000000140001D1B: 0F 84 D6 00 00 00  je          0000000140001DF7
  0000000140001D21: 48 85 C0           test        rax,rax
  0000000140001D24: 74 19              je          0000000140001D3F
  0000000140001D26: B9 04 00 00 00     mov         ecx,4
  0000000140001D2B: FF D0              call        rax
  0000000140001D2D: B8 FF FF FF FF     mov         eax,0FFFFFFFFh
  0000000140001D32: 48 83 C4 20        add         rsp,20h
  0000000140001D36: 5B                 pop         rbx
  0000000140001D37: C3                 ret
  0000000140001D38: 3D 02 00 00 80     cmp         eax,80000002h
  0000000140001D3D: 74 EE              je          0000000140001D2D
  0000000140001D3F: 48 8B 05 7A 53 00  mov         rax,qword ptr [00000001400070C0h]
                    00
  0000000140001D46: 48 85 C0           test        rax,rax
  0000000140001D49: 74 25              je          0000000140001D70
  0000000140001D4B: 48 89 D9           mov         rcx,rbx
  0000000140001D4E: 48 83 C4 20        add         rsp,20h
  0000000140001D52: 5B                 pop         rbx
  0000000140001D53: 48 FF E0           jmp         rax
  0000000140001D56: 66 2E 0F 1F 84 00  nop         word ptr cs:[rax+rax+0000000000000000h]
                    00 00 00 00
  0000000140001D60: F6 42 04 01        test        byte ptr [rdx+4],1
  0000000140001D64: 0F 85 57 FF FF FF  jne         0000000140001CC1
  0000000140001D6A: EB C1              jmp         0000000140001D2D
  0000000140001D6C: 0F 1F 40 00        nop         dword ptr [rax]
  0000000140001D70: 31 C0              xor         eax,eax
  0000000140001D72: 48 83 C4 20        add         rsp,20h
  0000000140001D76: 5B                 pop         rbx
  0000000140001D77: C3                 ret
  0000000140001D78: 0F 1F 84 00 00 00  nop         dword ptr [rax+rax+0000000000000000h]
                    00 00
  0000000140001D80: 31 D2              xor         edx,edx
  0000000140001D82: B9 08 00 00 00     mov         ecx,8
  0000000140001D87: E8 D4 0A 00 00     call        0000000140002860
  0000000140001D8C: 48 83 F8 01        cmp         rax,1
  0000000140001D90: 0F 84 89 00 00 00  je          0000000140001E1F
  0000000140001D96: 48 85 C0           test        rax,rax
  0000000140001D99: 74 A4              je          0000000140001D3F
  0000000140001D9B: B9 08 00 00 00     mov         ecx,8
  0000000140001DA0: FF D0              call        rax
  0000000140001DA2: EB 89              jmp         0000000140001D2D
  0000000140001DA4: 0F 1F 40 00        nop         dword ptr [rax]
  0000000140001DA8: 31 D2              xor         edx,edx
  0000000140001DAA: B9 08 00 00 00     mov         ecx,8
  0000000140001DAF: E8 AC 0A 00 00     call        0000000140002860
  0000000140001DB4: 48 83 F8 01        cmp         rax,1
  0000000140001DB8: 75 DC              jne         0000000140001D96
  0000000140001DBA: BA 01 00 00 00     mov         edx,1
  0000000140001DBF: B9 08 00 00 00     mov         ecx,8
  0000000140001DC4: E8 97 0A 00 00     call        0000000140002860
  0000000140001DC9: E9 5F FF FF FF     jmp         0000000140001D2D
  0000000140001DCE: 66 90              nop
  0000000140001DD0: 31 D2              xor         edx,edx
  0000000140001DD2: B9 0B 00 00 00     mov         ecx,0Bh
  0000000140001DD7: E8 84 0A 00 00     call        0000000140002860
  0000000140001DDC: 48 83 F8 01        cmp         rax,1
  0000000140001DE0: 74 29              je          0000000140001E0B
  0000000140001DE2: 48 85 C0           test        rax,rax
  0000000140001DE5: 0F 84 54 FF FF FF  je          0000000140001D3F
  0000000140001DEB: B9 0B 00 00 00     mov         ecx,0Bh
  0000000140001DF0: FF D0              call        rax
  0000000140001DF2: E9 36 FF FF FF     jmp         0000000140001D2D
  0000000140001DF7: BA 01 00 00 00     mov         edx,1
  0000000140001DFC: B9 04 00 00 00     mov         ecx,4
  0000000140001E01: E8 5A 0A 00 00     call        0000000140002860
  0000000140001E06: E9 22 FF FF FF     jmp         0000000140001D2D
  0000000140001E0B: BA 01 00 00 00     mov         edx,1
  0000000140001E10: B9 0B 00 00 00     mov         ecx,0Bh
  0000000140001E15: E8 46 0A 00 00     call        0000000140002860
  0000000140001E1A: E9 0E FF FF FF     jmp         0000000140001D2D
  0000000140001E1F: BA 01 00 00 00     mov         edx,1
  0000000140001E24: B9 08 00 00 00     mov         ecx,8
  0000000140001E29: E8 32 0A 00 00     call        0000000140002860
  0000000140001E2E: E8 CD F8 FF FF     call        0000000140001700
  0000000140001E33: E9 F5 FE FF FF     jmp         0000000140001D2D
  0000000140001E38: 90                 nop
  0000000140001E39: 90                 nop
  0000000140001E3A: 90                 nop
  0000000140001E3B: 90                 nop
  0000000140001E3C: 90                 nop
  0000000140001E3D: 90                 nop
  0000000140001E3E: 90                 nop
  0000000140001E3F: 90                 nop
  0000000140001E40: 41 54              push        r12
  0000000140001E42: 55                 push        rbp
  0000000140001E43: 57                 push        rdi
  0000000140001E44: 56                 push        rsi
  0000000140001E45: 53                 push        rbx
  0000000140001E46: 48 83 EC 20        sub         rsp,20h
  0000000140001E4A: 4C 8D 25 AF 52 00  lea         r12,[0000000140007100h]
                    00
  0000000140001E51: 4C 89 E1           mov         rcx,r12
  0000000140001E54: FF 15 46 64 00 00  call        qword ptr [00000001400082A0h]
  0000000140001E5A: 48 8B 1D 7F 52 00  mov         rbx,qword ptr [00000001400070E0h]
                    00
  0000000140001E61: 48 85 DB           test        rbx,rbx
  0000000140001E64: 74 36              je          0000000140001E9C
  0000000140001E66: 48 8B 2D 63 64 00  mov         rbp,qword ptr [00000001400082D0h]
                    00
  0000000140001E6D: 48 8B 3D 34 64 00  mov         rdi,qword ptr [00000001400082A8h]
                    00
  0000000140001E74: 0F 1F 40 00        nop         dword ptr [rax]
  0000000140001E78: 8B 0B              mov         ecx,dword ptr [rbx]
  0000000140001E7A: FF D5              call        rbp
  0000000140001E7C: 48 89 C6           mov         rsi,rax
  0000000140001E7F: FF D7              call        rdi
  0000000140001E81: 85 C0              test        eax,eax
  0000000140001E83: 75 0E              jne         0000000140001E93
  0000000140001E85: 48 85 F6           test        rsi,rsi
  0000000140001E88: 74 09              je          0000000140001E93
  0000000140001E8A: 48 8B 43 08        mov         rax,qword ptr [rbx+8]
  0000000140001E8E: 48 89 F1           mov         rcx,rsi
  0000000140001E91: FF D0              call        rax
  0000000140001E93: 48 8B 5B 10        mov         rbx,qword ptr [rbx+10h]
  0000000140001E97: 48 85 DB           test        rbx,rbx
  0000000140001E9A: 75 DC              jne         0000000140001E78
  0000000140001E9C: 4C 89 E1           mov         rcx,r12
  0000000140001E9F: 48 83 C4 20        add         rsp,20h
  0000000140001EA3: 5B                 pop         rbx
  0000000140001EA4: 5E                 pop         rsi
  0000000140001EA5: 5F                 pop         rdi
  0000000140001EA6: 5D                 pop         rbp
  0000000140001EA7: 41 5C              pop         r12
  0000000140001EA9: 48 FF 25 08 64 00  jmp         qword ptr [00000001400082B8h]
                    00
  0000000140001EB0: 57                 push        rdi
  0000000140001EB1: 56                 push        rsi
  0000000140001EB2: 53                 push        rbx
  0000000140001EB3: 48 83 EC 20        sub         rsp,20h
  0000000140001EB7: 8B 05 2B 52 00 00  mov         eax,dword ptr [00000001400070E8h]
  0000000140001EBD: 85 C0              test        eax,eax
  0000000140001EBF: 89 CF              mov         edi,ecx
  0000000140001EC1: 48 89 D6           mov         rsi,rdx
  0000000140001EC4: 75 0A              jne         0000000140001ED0
  0000000140001EC6: 31 C0              xor         eax,eax
  0000000140001EC8: 48 83 C4 20        add         rsp,20h
  0000000140001ECC: 5B                 pop         rbx
  0000000140001ECD: 5E                 pop         rsi
  0000000140001ECE: 5F                 pop         rdi
  0000000140001ECF: C3                 ret
  0000000140001ED0: BA 18 00 00 00     mov         edx,18h
  0000000140001ED5: B9 01 00 00 00     mov         ecx,1
  0000000140001EDA: E8 B9 09 00 00     call        0000000140002898
  0000000140001EDF: 48 85 C0           test        rax,rax
  0000000140001EE2: 48 89 C3           mov         rbx,rax
  0000000140001EE5: 74 33              je          0000000140001F1A
  0000000140001EE7: 48 89 70 08        mov         qword ptr [rax+8],rsi
  0000000140001EEB: 48 8D 35 0E 52 00  lea         rsi,[0000000140007100h]
                    00
  0000000140001EF2: 89 38              mov         dword ptr [rax],edi
  0000000140001EF4: 48 89 F1           mov         rcx,rsi
  0000000140001EF7: FF 15 A3 63 00 00  call        qword ptr [00000001400082A0h]
  0000000140001EFD: 48 8B 05 DC 51 00  mov         rax,qword ptr [00000001400070E0h]
                    00
  0000000140001F04: 48 89 F1           mov         rcx,rsi
  0000000140001F07: 48 89 1D D2 51 00  mov         qword ptr [00000001400070E0h],rbx
                    00
  0000000140001F0E: 48 89 43 10        mov         qword ptr [rbx+10h],rax
  0000000140001F12: FF 15 A0 63 00 00  call        qword ptr [00000001400082B8h]
  0000000140001F18: EB AC              jmp         0000000140001EC6
  0000000140001F1A: 83 C8 FF           or          eax,0FFFFFFFFh
  0000000140001F1D: EB A9              jmp         0000000140001EC8
  0000000140001F1F: 90                 nop
  0000000140001F20: 56                 push        rsi
  0000000140001F21: 53                 push        rbx
  0000000140001F22: 48 83 EC 28        sub         rsp,28h
  0000000140001F26: 8B 05 BC 51 00 00  mov         eax,dword ptr [00000001400070E8h]
  0000000140001F2C: 85 C0              test        eax,eax
  0000000140001F2E: 89 CB              mov         ebx,ecx
  0000000140001F30: 75 0E              jne         0000000140001F40
  0000000140001F32: 31 C0              xor         eax,eax
  0000000140001F34: 48 83 C4 28        add         rsp,28h
  0000000140001F38: 5B                 pop         rbx
  0000000140001F39: 5E                 pop         rsi
  0000000140001F3A: C3                 ret
  0000000140001F3B: 0F 1F 44 00 00     nop         dword ptr [rax+rax]
  0000000140001F40: 48 8D 35 B9 51 00  lea         rsi,[0000000140007100h]
                    00
  0000000140001F47: 48 89 F1           mov         rcx,rsi
  0000000140001F4A: FF 15 50 63 00 00  call        qword ptr [00000001400082A0h]
  0000000140001F50: 48 8B 0D 89 51 00  mov         rcx,qword ptr [00000001400070E0h]
                    00
  0000000140001F57: 48 85 C9           test        rcx,rcx
  0000000140001F5A: 74 27              je          0000000140001F83
  0000000140001F5C: 31 D2              xor         edx,edx
  0000000140001F5E: EB 0B              jmp         0000000140001F6B
  0000000140001F60: 48 85 C0           test        rax,rax
  0000000140001F63: 48 89 CA           mov         rdx,rcx
  0000000140001F66: 74 1B              je          0000000140001F83
  0000000140001F68: 48 89 C1           mov         rcx,rax
  0000000140001F6B: 8B 01              mov         eax,dword ptr [rcx]
  0000000140001F6D: 39 D8              cmp         eax,ebx
  0000000140001F6F: 48 8B 41 10        mov         rax,qword ptr [rcx+10h]
  0000000140001F73: 75 EB              jne         0000000140001F60
  0000000140001F75: 48 85 D2           test        rdx,rdx
  0000000140001F78: 74 1E              je          0000000140001F98
  0000000140001F7A: 48 89 42 10        mov         qword ptr [rdx+10h],rax
  0000000140001F7E: E8 1D 09 00 00     call        00000001400028A0
  0000000140001F83: 48 89 F1           mov         rcx,rsi
  0000000140001F86: FF 15 2C 63 00 00  call        qword ptr [00000001400082B8h]
  0000000140001F8C: 31 C0              xor         eax,eax
  0000000140001F8E: 48 83 C4 28        add         rsp,28h
  0000000140001F92: 5B                 pop         rbx
  0000000140001F93: 5E                 pop         rsi
  0000000140001F94: C3                 ret
  0000000140001F95: 0F 1F 00           nop         dword ptr [rax]
  0000000140001F98: 48 89 05 41 51 00  mov         qword ptr [00000001400070E0h],rax
                    00
  0000000140001F9F: EB DD              jmp         0000000140001F7E
  0000000140001FA1: 66 66 2E 0F 1F 84  nop         word ptr cs:[rax+rax+0000000000000000h]
                    00 00 00 00 00
  0000000140001FAC: 0F 1F 40 00        nop         dword ptr [rax]
  0000000140001FB0: 53                 push        rbx
  0000000140001FB1: 48 83 EC 20        sub         rsp,20h
  0000000140001FB5: 83 FA 02           cmp         edx,2
  0000000140001FB8: 0F 84 B2 00 00 00  je          0000000140002070
  0000000140001FBE: 77 30              ja          0000000140001FF0
  0000000140001FC0: 85 D2              test        edx,edx
  0000000140001FC2: 74 4C              je          0000000140002010
  0000000140001FC4: 8B 05 1E 51 00 00  mov         eax,dword ptr [00000001400070E8h]
  0000000140001FCA: 85 C0              test        eax,eax
  0000000140001FCC: 0F 84 BE 00 00 00  je          0000000140002090
  0000000140001FD2: C7 05 0C 51 00 00  mov         dword ptr [00000001400070E8h],1
                    01 00 00 00
  0000000140001FDC: B8 01 00 00 00     mov         eax,1
  0000000140001FE1: 48 83 C4 20        add         rsp,20h
  0000000140001FE5: 5B                 pop         rbx
  0000000140001FE6: C3                 ret
  0000000140001FE7: 66 0F 1F 84 00 00  nop         word ptr [rax+rax+0000000000000000h]
                    00 00 00
  0000000140001FF0: 83 FA 03           cmp         edx,3
  0000000140001FF3: 75 E7              jne         0000000140001FDC
  0000000140001FF5: 8B 05 ED 50 00 00  mov         eax,dword ptr [00000001400070E8h]
  0000000140001FFB: 85 C0              test        eax,eax
  0000000140001FFD: 74 DD              je          0000000140001FDC
  0000000140001FFF: E8 3C FE FF FF     call        0000000140001E40
  0000000140002004: EB D6              jmp         0000000140001FDC
  0000000140002006: 66 2E 0F 1F 84 00  nop         word ptr cs:[rax+rax+0000000000000000h]
                    00 00 00 00
  0000000140002010: 8B 05 D2 50 00 00  mov         eax,dword ptr [00000001400070E8h]
  0000000140002016: 85 C0              test        eax,eax
  0000000140002018: 75 66              jne         0000000140002080
  000000014000201A: 8B 05 C8 50 00 00  mov         eax,dword ptr [00000001400070E8h]
  0000000140002020: 83 F8 01           cmp         eax,1
  0000000140002023: 75 B7              jne         0000000140001FDC
  0000000140002025: 48 8B 1D B4 50 00  mov         rbx,qword ptr [00000001400070E0h]
                    00
  000000014000202C: 48 85 DB           test        rbx,rbx
  000000014000202F: 74 18              je          0000000140002049
  0000000140002031: 0F 1F 80 00 00 00  nop         dword ptr [rax+0000000000000000h]
                    00
  0000000140002038: 48 89 D9           mov         rcx,rbx
  000000014000203B: 48 8B 5B 10        mov         rbx,qword ptr [rbx+10h]
  000000014000203F: E8 5C 08 00 00     call        00000001400028A0
  0000000140002044: 48 85 DB           test        rbx,rbx
  0000000140002047: 75 EF              jne         0000000140002038
  0000000140002049: 48 8D 0D B0 50 00  lea         rcx,[0000000140007100h]
                    00
  0000000140002050: 48 C7 05 85 50 00  mov         qword ptr [00000001400070E0h],0
                    00 00 00 00 00
  000000014000205B: C7 05 83 50 00 00  mov         dword ptr [00000001400070E8h],0
                    00 00 00 00
  0000000140002065: FF 15 2D 62 00 00  call        qword ptr [0000000140008298h]
  000000014000206B: E9 6C FF FF FF     jmp         0000000140001FDC
  0000000140002070: E8 8B F6 FF FF     call        0000000140001700
  0000000140002075: B8 01 00 00 00     mov         eax,1
  000000014000207A: 48 83 C4 20        add         rsp,20h
  000000014000207E: 5B                 pop         rbx
  000000014000207F: C3                 ret
  0000000140002080: E8 BB FD FF FF     call        0000000140001E40
  0000000140002085: EB 93              jmp         000000014000201A
  0000000140002087: 66 0F 1F 84 00 00  nop         word ptr [rax+rax+0000000000000000h]
                    00 00 00
  0000000140002090: 48 8D 0D 69 50 00  lea         rcx,[0000000140007100h]
                    00
  0000000140002097: FF 15 13 62 00 00  call        qword ptr [00000001400082B0h]
  000000014000209D: E9 30 FF FF FF     jmp         0000000140001FD2
  00000001400020A2: 90                 nop
  00000001400020A3: 90                 nop
  00000001400020A4: 90                 nop
  00000001400020A5: 90                 nop
  00000001400020A6: 90                 nop
  00000001400020A7: 90                 nop
  00000001400020A8: 90                 nop
  00000001400020A9: 90                 nop
  00000001400020AA: 90                 nop
  00000001400020AB: 90                 nop
  00000001400020AC: 90                 nop
  00000001400020AD: 90                 nop
  00000001400020AE: 90                 nop
  00000001400020AF: 90                 nop
  00000001400020B0: 31 C0              xor         eax,eax
  00000001400020B2: 66 81 39 4D 5A     cmp         word ptr [rcx],5A4Dh
  00000001400020B7: 75 0F              jne         00000001400020C8
  00000001400020B9: 48 63 51 3C        movsxd      rdx,dword ptr [rcx+3Ch]
  00000001400020BD: 48 01 D1           add         rcx,rdx
  00000001400020C0: 81 39 50 45 00 00  cmp         dword ptr [rcx],4550h
  00000001400020C6: 74 08              je          00000001400020D0
  00000001400020C8: C3                 ret
  00000001400020C9: 0F 1F 80 00 00 00  nop         dword ptr [rax+0000000000000000h]
                    00
  00000001400020D0: 31 C0              xor         eax,eax
  00000001400020D2: 66 81 79 18 0B 02  cmp         word ptr [rcx+18h],20Bh
  00000001400020D8: 0F 94 C0           sete        al
  00000001400020DB: C3                 ret
  00000001400020DC: 0F 1F 40 00        nop         dword ptr [rax]
  00000001400020E0: 48 63 41 3C        movsxd      rax,dword ptr [rcx+3Ch]
  00000001400020E4: 48 01 C1           add         rcx,rax
  00000001400020E7: 44 0F B7 41 06     movzx       r8d,word ptr [rcx+6]
  00000001400020EC: 0F B7 41 14        movzx       eax,word ptr [rcx+14h]
  00000001400020F0: 66 45 85 C0        test        r8w,r8w
  00000001400020F4: 48 8D 44 01 18     lea         rax,[rcx+rax+18h]
  00000001400020F9: 74 32              je          000000014000212D
  00000001400020FB: 41 8D 48 FF        lea         ecx,[r8-1]
  00000001400020FF: 48 8D 0C 89        lea         rcx,[rcx+rcx*4]
  0000000140002103: 4C 8D 4C C8 28     lea         r9,[rax+rcx*8+28h]
  0000000140002108: 0F 1F 84 00 00 00  nop         dword ptr [rax+rax+0000000000000000h]
                    00 00
  0000000140002110: 44 8B 40 0C        mov         r8d,dword ptr [rax+0Ch]
  0000000140002114: 4C 39 C2           cmp         rdx,r8
  0000000140002117: 4C 89 C1           mov         rcx,r8
  000000014000211A: 72 08              jb          0000000140002124
  000000014000211C: 03 48 08           add         ecx,dword ptr [rax+8]
  000000014000211F: 48 39 CA           cmp         rdx,rcx
  0000000140002122: 72 0B              jb          000000014000212F
  0000000140002124: 48 83 C0 28        add         rax,28h
  0000000140002128: 4C 39 C8           cmp         rax,r9
  000000014000212B: 75 E3              jne         0000000140002110
  000000014000212D: 31 C0              xor         eax,eax
  000000014000212F: C3                 ret
  0000000140002130: 57                 push        rdi
  0000000140002131: 56                 push        rsi
  0000000140002132: 53                 push        rbx
  0000000140002133: 48 83 EC 20        sub         rsp,20h
  0000000140002137: 48 89 CE           mov         rsi,rcx
  000000014000213A: E8 51 06 00 00     call        0000000140002790
  000000014000213F: 48 83 F8 08        cmp         rax,8
  0000000140002143: 77 7B              ja          00000001400021C0
  0000000140002145: 48 8B 15 64 22 00  mov         rdx,qword ptr [00000001400043B0h]
                    00
  000000014000214C: 31 DB              xor         ebx,ebx
  000000014000214E: 66 81 3A 4D 5A     cmp         word ptr [rdx],5A4Dh
  0000000140002153: 75 59              jne         00000001400021AE
  0000000140002155: 48 63 42 3C        movsxd      rax,dword ptr [rdx+3Ch]
  0000000140002159: 48 01 D0           add         rax,rdx
  000000014000215C: 81 38 50 45 00 00  cmp         dword ptr [rax],4550h
  0000000140002162: 75 4A              jne         00000001400021AE
  0000000140002164: 66 81 78 18 0B 02  cmp         word ptr [rax+18h],20Bh
  000000014000216A: 75 42              jne         00000001400021AE
  000000014000216C: 0F B7 50 14        movzx       edx,word ptr [rax+14h]
  0000000140002170: 48 8D 5C 10 18     lea         rbx,[rax+rdx+18h]
  0000000140002175: 0F B7 50 06        movzx       edx,word ptr [rax+6]
  0000000140002179: 66 85 D2           test        dx,dx
  000000014000217C: 74 42              je          00000001400021C0
  000000014000217E: 8D 42 FF           lea         eax,[rdx-1]
  0000000140002181: 48 8D 04 80        lea         rax,[rax+rax*4]
  0000000140002185: 48 8D 7C C3 28     lea         rdi,[rbx+rax*8+28h]
  000000014000218A: EB 0D              jmp         0000000140002199
  000000014000218C: 0F 1F 40 00        nop         dword ptr [rax]
  0000000140002190: 48 83 C3 28        add         rbx,28h
  0000000140002194: 48 39 FB           cmp         rbx,rdi
  0000000140002197: 74 27              je          00000001400021C0
  0000000140002199: 41 B8 08 00 00 00  mov         r8d,8
  000000014000219F: 48 89 F2           mov         rdx,rsi
  00000001400021A2: 48 89 D9           mov         rcx,rbx
  00000001400021A5: E8 EE 05 00 00     call        0000000140002798
  00000001400021AA: 85 C0              test        eax,eax
  00000001400021AC: 75 E2              jne         0000000140002190
  00000001400021AE: 48 89 D8           mov         rax,rbx
  00000001400021B1: 48 83 C4 20        add         rsp,20h
  00000001400021B5: 5B                 pop         rbx
  00000001400021B6: 5E                 pop         rsi
  00000001400021B7: 5F                 pop         rdi
  00000001400021B8: C3                 ret
  00000001400021B9: 0F 1F 80 00 00 00  nop         dword ptr [rax+0000000000000000h]
                    00
  00000001400021C0: 31 DB              xor         ebx,ebx
  00000001400021C2: 48 89 D8           mov         rax,rbx
  00000001400021C5: 48 83 C4 20        add         rsp,20h
  00000001400021C9: 5B                 pop         rbx
  00000001400021CA: 5E                 pop         rsi
  00000001400021CB: 5F                 pop         rdi
  00000001400021CC: C3                 ret
  00000001400021CD: 0F 1F 00           nop         dword ptr [rax]
  00000001400021D0: 48 8B 15 D9 21 00  mov         rdx,qword ptr [00000001400043B0h]
                    00
  00000001400021D7: 31 C0              xor         eax,eax
  00000001400021D9: 66 81 3A 4D 5A     cmp         word ptr [rdx],5A4Dh
  00000001400021DE: 75 10              jne         00000001400021F0
  00000001400021E0: 4C 63 42 3C        movsxd      r8,dword ptr [rdx+3Ch]
  00000001400021E4: 49 01 D0           add         r8,rdx
  00000001400021E7: 41 81 38 50 45 00  cmp         dword ptr [r8],4550h
                    00
  00000001400021EE: 74 08              je          00000001400021F8
  00000001400021F0: C3                 ret
  00000001400021F1: 0F 1F 80 00 00 00  nop         dword ptr [rax+0000000000000000h]
                    00
  00000001400021F8: 66 41 81 78 18 0B  cmp         word ptr [r8+18h],20Bh
                    02
  00000001400021FF: 75 EF              jne         00000001400021F0
  0000000140002201: 41 0F B7 40 14     movzx       eax,word ptr [r8+14h]
  0000000140002206: 48 29 D1           sub         rcx,rdx
  0000000140002209: 49 8D 44 00 18     lea         rax,[r8+rax+18h]
  000000014000220E: 45 0F B7 40 06     movzx       r8d,word ptr [r8+6]
  0000000140002213: 66 45 85 C0        test        r8w,r8w
  0000000140002217: 74 34              je          000000014000224D
  0000000140002219: 41 8D 50 FF        lea         edx,[r8-1]
  000000014000221D: 48 8D 14 92        lea         rdx,[rdx+rdx*4]
  0000000140002221: 4C 8D 4C D0 28     lea         r9,[rax+rdx*8+28h]
  0000000140002226: 66 2E 0F 1F 84 00  nop         word ptr cs:[rax+rax+0000000000000000h]
                    00 00 00 00
  0000000140002230: 44 8B 40 0C        mov         r8d,dword ptr [rax+0Ch]
  0000000140002234: 4C 39 C1           cmp         rcx,r8
  0000000140002237: 4C 89 C2           mov         rdx,r8
  000000014000223A: 72 08              jb          0000000140002244
  000000014000223C: 03 50 08           add         edx,dword ptr [rax+8]
  000000014000223F: 48 39 D1           cmp         rcx,rdx
  0000000140002242: 72 AC              jb          00000001400021F0
  0000000140002244: 48 83 C0 28        add         rax,28h
  0000000140002248: 4C 39 C8           cmp         rax,r9
  000000014000224B: 75 E3              jne         0000000140002230
  000000014000224D: 31 C0              xor         eax,eax
  000000014000224F: C3                 ret
  0000000140002250: 48 8B 05 59 21 00  mov         rax,qword ptr [00000001400043B0h]
                    00
  0000000140002257: 31 C9              xor         ecx,ecx
  0000000140002259: 66 81 38 4D 5A     cmp         word ptr [rax],5A4Dh
  000000014000225E: 75 0F              jne         000000014000226F
  0000000140002260: 48 63 50 3C        movsxd      rdx,dword ptr [rax+3Ch]
  0000000140002264: 48 01 D0           add         rax,rdx
  0000000140002267: 81 38 50 45 00 00  cmp         dword ptr [rax],4550h
  000000014000226D: 74 09              je          0000000140002278
  000000014000226F: 89 C8              mov         eax,ecx
  0000000140002271: C3                 ret
  0000000140002272: 66 0F 1F 44 00 00  nop         word ptr [rax+rax]
  0000000140002278: 66 81 78 18 0B 02  cmp         word ptr [rax+18h],20Bh
  000000014000227E: 75 EF              jne         000000014000226F
  0000000140002280: 0F B7 48 06        movzx       ecx,word ptr [rax+6]
  0000000140002284: 89 C8              mov         eax,ecx
  0000000140002286: C3                 ret
  0000000140002287: 66 0F 1F 84 00 00  nop         word ptr [rax+rax+0000000000000000h]
                    00 00 00
  0000000140002290: 4C 8B 05 19 21 00  mov         r8,qword ptr [00000001400043B0h]
                    00
  0000000140002297: 31 C0              xor         eax,eax
  0000000140002299: 66 41 81 38 4D 5A  cmp         word ptr [r8],5A4Dh
  000000014000229F: 75 0F              jne         00000001400022B0
  00000001400022A1: 49 63 50 3C        movsxd      rdx,dword ptr [r8+3Ch]
  00000001400022A5: 4C 01 C2           add         rdx,r8
  00000001400022A8: 81 3A 50 45 00 00  cmp         dword ptr [rdx],4550h
  00000001400022AE: 74 08              je          00000001400022B8
  00000001400022B0: C3                 ret
  00000001400022B1: 0F 1F 80 00 00 00  nop         dword ptr [rax+0000000000000000h]
                    00
  00000001400022B8: 66 81 7A 18 0B 02  cmp         word ptr [rdx+18h],20Bh
  00000001400022BE: 75 F0              jne         00000001400022B0
  00000001400022C0: 44 0F B7 42 06     movzx       r8d,word ptr [rdx+6]
  00000001400022C5: 0F B7 42 14        movzx       eax,word ptr [rdx+14h]
  00000001400022C9: 66 45 85 C0        test        r8w,r8w
  00000001400022CD: 48 8D 44 02 18     lea         rax,[rdx+rax+18h]
  00000001400022D2: 74 2C              je          0000000140002300
  00000001400022D4: 41 8D 50 FF        lea         edx,[r8-1]
  00000001400022D8: 48 8D 14 92        lea         rdx,[rdx+rdx*4]
  00000001400022DC: 48 8D 54 D0 28     lea         rdx,[rax+rdx*8+28h]
  00000001400022E1: 0F 1F 80 00 00 00  nop         dword ptr [rax+0000000000000000h]
                    00
  00000001400022E8: F6 40 27 20        test        byte ptr [rax+27h],20h
  00000001400022EC: 74 09              je          00000001400022F7
  00000001400022EE: 48 85 C9           test        rcx,rcx
  00000001400022F1: 74 BD              je          00000001400022B0
  00000001400022F3: 48 83 E9 01        sub         rcx,1
  00000001400022F7: 48 83 C0 28        add         rax,28h
  00000001400022FB: 48 39 D0           cmp         rax,rdx
  00000001400022FE: 75 E8              jne         00000001400022E8
  0000000140002300: 31 C0              xor         eax,eax
  0000000140002302: C3                 ret
  0000000140002303: 66 66 2E 0F 1F 84  nop         word ptr cs:[rax+rax+0000000000000000h]
                    00 00 00 00 00
  000000014000230E: 66 90              nop
  0000000140002310: 48 8B 05 99 20 00  mov         rax,qword ptr [00000001400043B0h]
                    00
  0000000140002317: 31 D2              xor         edx,edx
  0000000140002319: 66 81 38 4D 5A     cmp         word ptr [rax],5A4Dh
  000000014000231E: 75 0F              jne         000000014000232F
  0000000140002320: 48 63 48 3C        movsxd      rcx,dword ptr [rax+3Ch]
  0000000140002324: 48 01 C1           add         rcx,rax
  0000000140002327: 81 39 50 45 00 00  cmp         dword ptr [rcx],4550h
  000000014000232D: 74 09              je          0000000140002338
  000000014000232F: 48 89 D0           mov         rax,rdx
  0000000140002332: C3                 ret
  0000000140002333: 0F 1F 44 00 00     nop         dword ptr [rax+rax]
  0000000140002338: 66 81 79 18 0B 02  cmp         word ptr [rcx+18h],20Bh
  000000014000233E: 48 0F 44 D0        cmove       rdx,rax
  0000000140002342: 48 89 D0           mov         rax,rdx
  0000000140002345: C3                 ret
  0000000140002346: 66 2E 0F 1F 84 00  nop         word ptr cs:[rax+rax+0000000000000000h]
                    00 00 00 00
  0000000140002350: 48 8B 15 59 20 00  mov         rdx,qword ptr [00000001400043B0h]
                    00
  0000000140002357: 31 C0              xor         eax,eax
  0000000140002359: 66 81 3A 4D 5A     cmp         word ptr [rdx],5A4Dh
  000000014000235E: 75 10              jne         0000000140002370
  0000000140002360: 4C 63 42 3C        movsxd      r8,dword ptr [rdx+3Ch]
  0000000140002364: 49 01 D0           add         r8,rdx
  0000000140002367: 41 81 38 50 45 00  cmp         dword ptr [r8],4550h
                    00
  000000014000236E: 74 08              je          0000000140002378
  0000000140002370: C3                 ret
  0000000140002371: 0F 1F 80 00 00 00  nop         dword ptr [rax+0000000000000000h]
                    00
  0000000140002378: 66 41 81 78 18 0B  cmp         word ptr [r8+18h],20Bh
                    02
  000000014000237F: 75 EF              jne         0000000140002370
  0000000140002381: 45 0F B7 48 06     movzx       r9d,word ptr [r8+6]
  0000000140002386: 48 29 D1           sub         rcx,rdx
  0000000140002389: 41 0F B7 50 14     movzx       edx,word ptr [r8+14h]
  000000014000238E: 66 45 85 C9        test        r9w,r9w
  0000000140002392: 49 8D 54 10 18     lea         rdx,[r8+rdx+18h]
  0000000140002397: 74 D7              je          0000000140002370
  0000000140002399: 41 8D 41 FF        lea         eax,[r9-1]
  000000014000239D: 48 8D 04 80        lea         rax,[rax+rax*4]
  00000001400023A1: 4C 8D 4C C2 28     lea         r9,[rdx+rax*8+28h]
  00000001400023A6: 66 2E 0F 1F 84 00  nop         word ptr cs:[rax+rax+0000000000000000h]
                    00 00 00 00
  00000001400023B0: 44 8B 42 0C        mov         r8d,dword ptr [rdx+0Ch]
  00000001400023B4: 4C 39 C1           cmp         rcx,r8
  00000001400023B7: 4C 89 C0           mov         rax,r8
  00000001400023BA: 72 08              jb          00000001400023C4
  00000001400023BC: 03 42 08           add         eax,dword ptr [rdx+8]
  00000001400023BF: 48 39 C1           cmp         rcx,rax
  00000001400023C2: 72 0C              jb          00000001400023D0
  00000001400023C4: 48 83 C2 28        add         rdx,28h
  00000001400023C8: 49 39 D1           cmp         r9,rdx
  00000001400023CB: 75 E3              jne         00000001400023B0
  00000001400023CD: 31 C0              xor         eax,eax
  00000001400023CF: C3                 ret
  00000001400023D0: 8B 42 24           mov         eax,dword ptr [rdx+24h]
  00000001400023D3: F7 D0              not         eax
  00000001400023D5: C1 E8 1F           shr         eax,1Fh
  00000001400023D8: C3                 ret
  00000001400023D9: 0F 1F 80 00 00 00  nop         dword ptr [rax+0000000000000000h]
                    00
  00000001400023E0: 4C 8B 1D C9 1F 00  mov         r11,qword ptr [00000001400043B0h]
                    00
  00000001400023E7: 45 31 C9           xor         r9d,r9d
  00000001400023EA: 66 41 81 3B 4D 5A  cmp         word ptr [r11],5A4Dh
  00000001400023F0: 75 10              jne         0000000140002402
  00000001400023F2: 4D 63 43 3C        movsxd      r8,dword ptr [r11+3Ch]
  00000001400023F6: 4D 01 D8           add         r8,r11
  00000001400023F9: 41 81 38 50 45 00  cmp         dword ptr [r8],4550h
                    00
  0000000140002400: 74 0E              je          0000000140002410
  0000000140002402: 4C 89 C8           mov         rax,r9
  0000000140002405: C3                 ret
  0000000140002406: 66 2E 0F 1F 84 00  nop         word ptr cs:[rax+rax+0000000000000000h]
                    00 00 00 00
  0000000140002410: 66 41 81 78 18 0B  cmp         word ptr [r8+18h],20Bh
                    02
  0000000140002417: 75 E9              jne         0000000140002402
  0000000140002419: 41 8B 80 90 00 00  mov         eax,dword ptr [r8+0000000000000090h]
                    00
  0000000140002420: 85 C0              test        eax,eax
  0000000140002422: 74 DE              je          0000000140002402
  0000000140002424: 45 0F B7 50 06     movzx       r10d,word ptr [r8+6]
  0000000140002429: 41 0F B7 50 14     movzx       edx,word ptr [r8+14h]
  000000014000242E: 66 45 85 D2        test        r10w,r10w
  0000000140002432: 49 8D 54 10 18     lea         rdx,[r8+rdx+18h]
  0000000140002437: 74 C9              je          0000000140002402
  0000000140002439: 45 8D 42 FF        lea         r8d,[r10-1]
  000000014000243D: 4F 8D 04 80        lea         r8,[r8+r8*4]
  0000000140002441: 4E 8D 54 C2 28     lea         r10,[rdx+r8*8+28h]
  0000000140002446: 66 2E 0F 1F 84 00  nop         word ptr cs:[rax+rax+0000000000000000h]
                    00 00 00 00
  0000000140002450: 44 8B 4A 0C        mov         r9d,dword ptr [rdx+0Ch]
  0000000140002454: 4C 39 C8           cmp         rax,r9
  0000000140002457: 4D 89 C8           mov         r8,r9
  000000014000245A: 72 09              jb          0000000140002465
  000000014000245C: 44 03 42 08        add         r8d,dword ptr [rdx+8]
  0000000140002460: 4C 39 C0           cmp         rax,r8
  0000000140002463: 72 13              jb          0000000140002478
  0000000140002465: 48 83 C2 28        add         rdx,28h
  0000000140002469: 4C 39 D2           cmp         rdx,r10
  000000014000246C: 75 E2              jne         0000000140002450
  000000014000246E: 45 31 C9           xor         r9d,r9d
  0000000140002471: 4C 89 C8           mov         rax,r9
  0000000140002474: C3                 ret
  0000000140002475: 0F 1F 00           nop         dword ptr [rax]
  0000000140002478: 4C 01 D8           add         rax,r11
  000000014000247B: EB 0A              jmp         0000000140002487
  000000014000247D: 0F 1F 00           nop         dword ptr [rax]
  0000000140002480: 83 E9 01           sub         ecx,1
  0000000140002483: 48 83 C0 14        add         rax,14h
  0000000140002487: 44 8B 40 04        mov         r8d,dword ptr [rax+4]
  000000014000248B: 45 85 C0           test        r8d,r8d
  000000014000248E: 75 07              jne         0000000140002497
  0000000140002490: 8B 50 0C           mov         edx,dword ptr [rax+0Ch]
  0000000140002493: 85 D2              test        edx,edx
  0000000140002495: 74 D7              je          000000014000246E
  0000000140002497: 85 C9              test        ecx,ecx
  0000000140002499: 7F E5              jg          0000000140002480
  000000014000249B: 44 8B 48 0C        mov         r9d,dword ptr [rax+0Ch]
  000000014000249F: 4D 01 D9           add         r9,r11
  00000001400024A2: 4C 89 C8           mov         rax,r9
  00000001400024A5: C3                 ret
  00000001400024A6: 90                 nop
  00000001400024A7: 90                 nop
  00000001400024A8: 90                 nop
  00000001400024A9: 90                 nop
  00000001400024AA: 90                 nop
  00000001400024AB: 90                 nop
  00000001400024AC: 90                 nop
  00000001400024AD: 90                 nop
  00000001400024AE: 90                 nop
  00000001400024AF: 90                 nop
  00000001400024B0: 51                 push        rcx
  00000001400024B1: 50                 push        rax
  00000001400024B2: 48 3D 00 10 00 00  cmp         rax,1000h
  00000001400024B8: 48 8D 4C 24 18     lea         rcx,[rsp+18h]
  00000001400024BD: 72 19              jb          00000001400024D8
  00000001400024BF: 48 81 E9 00 10 00  sub         rcx,1000h
                    00
  00000001400024C6: 48 83 09 00        or          qword ptr [rcx],0
  00000001400024CA: 48 2D 00 10 00 00  sub         rax,1000h
  00000001400024D0: 48 3D 00 10 00 00  cmp         rax,1000h
  00000001400024D6: 77 E7              ja          00000001400024BF
  00000001400024D8: 48 29 C1           sub         rcx,rax
  00000001400024DB: 48 83 09 00        or          qword ptr [rcx],0
  00000001400024DF: 58                 pop         rax
  00000001400024E0: 59                 pop         rcx
  00000001400024E1: C3                 ret
  00000001400024E2: 90                 nop
  00000001400024E3: 90                 nop
  00000001400024E4: 90                 nop
  00000001400024E5: 90                 nop
  00000001400024E6: 90                 nop
  00000001400024E7: 90                 nop
  00000001400024E8: 90                 nop
  00000001400024E9: 90                 nop
  00000001400024EA: 90                 nop
  00000001400024EB: 90                 nop
  00000001400024EC: 90                 nop
  00000001400024ED: 90                 nop
  00000001400024EE: 90                 nop
  00000001400024EF: 90                 nop
  00000001400024F0: 48 83 EC 38        sub         rsp,38h
  00000001400024F4: 45 31 C9           xor         r9d,r9d
  00000001400024F7: 4C 89 44 24 20     mov         qword ptr [rsp+20h],r8
  00000001400024FC: 49 89 D0           mov         r8,rdx
  00000001400024FF: 48 89 CA           mov         rdx,rcx
  0000000140002502: 31 C9              xor         ecx,ecx
  0000000140002504: E8 AF 02 00 00     call        00000001400027B8
  0000000140002509: 48 83 C4 38        add         rsp,38h
  000000014000250D: C3                 ret
  000000014000250E: 90                 nop
  000000014000250F: 90                 nop
  0000000140002510: 48 83 EC 48        sub         rsp,48h
  0000000140002514: 48 8D 44 24 60     lea         rax,[rsp+60h]
  0000000140002519: 4C 89 44 24 60     mov         qword ptr [rsp+60h],r8
  000000014000251E: 49 89 D0           mov         r8,rdx
  0000000140002521: 48 89 CA           mov         rdx,rcx
  0000000140002524: 4C 89 4C 24 68     mov         qword ptr [rsp+68h],r9
  0000000140002529: 31 C9              xor         ecx,ecx
  000000014000252B: 45 31 C9           xor         r9d,r9d
  000000014000252E: 48 89 44 24 20     mov         qword ptr [rsp+20h],rax
  0000000140002533: 48 89 44 24 38     mov         qword ptr [rsp+38h],rax
  0000000140002538: E8 7B 02 00 00     call        00000001400027B8
  000000014000253D: 48 83 C4 48        add         rsp,48h
  0000000140002541: C3                 ret
  0000000140002542: 90                 nop
  0000000140002543: 90                 nop
  0000000140002544: 90                 nop
  0000000140002545: 90                 nop
  0000000140002546: 90                 nop
  0000000140002547: 90                 nop
  0000000140002548: 90                 nop
  0000000140002549: 90                 nop
  000000014000254A: 90                 nop
  000000014000254B: 90                 nop
  000000014000254C: 90                 nop
  000000014000254D: 90                 nop
  000000014000254E: 90                 nop
  000000014000254F: 90                 nop
  0000000140002550: 31 C0              xor         eax,eax
  0000000140002552: C3                 ret
  0000000140002553: 66 66 2E 0F 1F 84  nop         word ptr cs:[rax+rax+0000000000000000h]
                    00 00 00 00 00
  000000014000255E: 66 90              nop
  0000000140002560: 41 54              push        r12
  0000000140002562: 55                 push        rbp
  0000000140002563: 57                 push        rdi
  0000000140002564: 56                 push        rsi
  0000000140002565: 53                 push        rbx
  0000000140002566: 48 83 EC 20        sub         rsp,20h
  000000014000256A: 4C 8B 64 24 70     mov         r12,qword ptr [rsp+70h]
  000000014000256F: 44 89 CD           mov         ebp,r9d
  0000000140002572: 48 89 D6           mov         rsi,rdx
  0000000140002575: 4C 89 C3           mov         rbx,r8
  0000000140002578: 48 89 CF           mov         rdi,rcx
  000000014000257B: E8 A8 02 00 00     call        0000000140002828
  0000000140002580: 83 FD 01           cmp         ebp,1
  0000000140002583: B9 01 00 00 00     mov         ecx,1
  0000000140002588: 83 D9 FF           sbb         ecx,0FFFFFFFFh
  000000014000258B: E8 70 02 00 00     call        0000000140002800
  0000000140002590: E8 4B 02 00 00     call        00000001400027E0
  0000000140002595: 8B 00              mov         eax,dword ptr [rax]
  0000000140002597: 89 07              mov         dword ptr [rdi],eax
  0000000140002599: E8 4A 02 00 00     call        00000001400027E8
  000000014000259E: 48 8B 00           mov         rax,qword ptr [rax]
  00000001400025A1: 48 89 06           mov         qword ptr [rsi],rax
  00000001400025A4: E8 07 03 00 00     call        00000001400028B0
  00000001400025A9: 4D 85 E4           test        r12,r12
  00000001400025AC: 48 8B 00           mov         rax,qword ptr [rax]
  00000001400025AF: 48 89 03           mov         qword ptr [rbx],rax
  00000001400025B2: 74 09              je          00000001400025BD
  00000001400025B4: 41 8B 0C 24        mov         ecx,dword ptr [r12]
  00000001400025B8: E8 D3 02 00 00     call        0000000140002890
  00000001400025BD: 31 C0              xor         eax,eax
  00000001400025BF: 48 83 C4 20        add         rsp,20h
  00000001400025C3: 5B                 pop         rbx
  00000001400025C4: 5E                 pop         rsi
  00000001400025C5: 5F                 pop         rdi
  00000001400025C6: 5D                 pop         rbp
  00000001400025C7: 41 5C              pop         r12
  00000001400025C9: C3                 ret
  00000001400025CA: 66 0F 1F 44 00 00  nop         word ptr [rax+rax]
  00000001400025D0: 41 54              push        r12
  00000001400025D2: 55                 push        rbp
  00000001400025D3: 57                 push        rdi
  00000001400025D4: 56                 push        rsi
  00000001400025D5: 53                 push        rbx
  00000001400025D6: 48 83 EC 20        sub         rsp,20h
  00000001400025DA: 4C 8B 64 24 70     mov         r12,qword ptr [rsp+70h]
  00000001400025DF: 44 89 CD           mov         ebp,r9d
  00000001400025E2: 48 89 D6           mov         rsi,rdx
  00000001400025E5: 4C 89 C3           mov         rbx,r8
  00000001400025E8: 48 89 CF           mov         rdi,rcx
  00000001400025EB: E8 40 02 00 00     call        0000000140002830
  00000001400025F0: 83 FD 01           cmp         ebp,1
  00000001400025F3: B9 01 00 00 00     mov         ecx,1
  00000001400025F8: 83 D9 FF           sbb         ecx,0FFFFFFFFh
  00000001400025FB: E8 08 02 00 00     call        0000000140002808
  0000000140002600: E8 DB 01 00 00     call        00000001400027E0
  0000000140002605: 8B 00              mov         eax,dword ptr [rax]
  0000000140002607: 89 07              mov         dword ptr [rdi],eax
  0000000140002609: E8 E2 01 00 00     call        00000001400027F0
  000000014000260E: 48 8B 00           mov         rax,qword ptr [rax]
  0000000140002611: 48 89 06           mov         qword ptr [rsi],rax
  0000000140002614: E8 9F 02 00 00     call        00000001400028B8
  0000000140002619: 4D 85 E4           test        r12,r12
  000000014000261C: 48 8B 00           mov         rax,qword ptr [rax]
  000000014000261F: 48 89 03           mov         qword ptr [rbx],rax
  0000000140002622: 74 09              je          000000014000262D
  0000000140002624: 41 8B 0C 24        mov         ecx,dword ptr [r12]
  0000000140002628: E8 63 02 00 00     call        0000000140002890
  000000014000262D: 31 C0              xor         eax,eax
  000000014000262F: 48 83 C4 20        add         rsp,20h
  0000000140002633: 5B                 pop         rbx
  0000000140002634: 5E                 pop         rsi
  0000000140002635: 5F                 pop         rdi
  0000000140002636: 5D                 pop         rbp
  0000000140002637: 41 5C              pop         r12
  0000000140002639: C3                 ret
  000000014000263A: 66 0F 1F 44 00 00  nop         word ptr [rax+rax]
  0000000140002640: 53                 push        rbx
  0000000140002641: 48 83 EC 20        sub         rsp,20h
  0000000140002645: 48 89 CB           mov         rbx,rcx
  0000000140002648: E8 CB 01 00 00     call        0000000140002818
  000000014000264D: 85 C0              test        eax,eax
  000000014000264F: B8 00 00 00 00     mov         eax,0
  0000000140002654: 48 0F 44 C3        cmove       rax,rbx
  0000000140002658: 48 83 C4 20        add         rsp,20h
  000000014000265C: 5B                 pop         rbx
  000000014000265D: C3                 ret
  000000014000265E: 66 90              nop
  0000000140002660: 48 8B 05 B9 1D 00  mov         rax,qword ptr [0000000140004420h]
                    00
  0000000140002667: 80 38 00           cmp         byte ptr [rax],0
  000000014000266A: 74 04              je          0000000140002670
  000000014000266C: 31 C0              xor         eax,eax
  000000014000266E: C3                 ret
  000000014000266F: 90                 nop
  0000000140002670: E9 9B 01 00 00     jmp         0000000140002810
  0000000140002675: 66 66 2E 0F 1F 84  nop         word ptr cs:[rax+rax+0000000000000000h]
                    00 00 00 00 00
  0000000140002680: 53                 push        rbx
  0000000140002681: 48 83 EC 20        sub         rsp,20h
  0000000140002685: 89 CB              mov         ebx,ecx
  0000000140002687: B9 02 00 00 00     mov         ecx,2
  000000014000268C: E8 0F 01 00 00     call        00000001400027A0
  0000000140002691: 48 8D 15 98 1C 00  lea         rdx,[0000000140004330h]
                    00
  0000000140002698: 41 89 D8           mov         r8d,ebx
  000000014000269B: 48 89 C1           mov         rcx,rax
  000000014000269E: E8 6D FE FF FF     call        0000000140002510
  00000001400026A3: B9 FF 00 00 00     mov         ecx,0FFh
  00000001400026A8: E8 73 01 00 00     call        0000000140002820
  00000001400026AD: 90                 nop
  00000001400026AE: 66 90              nop
  00000001400026B0: 48 83 EC 48        sub         rsp,48h
  00000001400026B4: 48 8D 44 24 60     lea         rax,[rsp+60h]
  00000001400026B9: 4C 89 44 24 60     mov         qword ptr [rsp+60h],r8
  00000001400026BE: 49 89 D0           mov         r8,rdx
  00000001400026C1: 48 89 CA           mov         rdx,rcx
  00000001400026C4: 4C 89 4C 24 68     mov         qword ptr [rsp+68h],r9
  00000001400026C9: B9 04 00 00 00     mov         ecx,4
  00000001400026CE: 45 31 C9           xor         r9d,r9d
  00000001400026D1: 48 89 44 24 20     mov         qword ptr [rsp+20h],rax
  00000001400026D6: 48 89 44 24 38     mov         qword ptr [rsp+38h],rax
  00000001400026DB: E8 E0 00 00 00     call        00000001400027C0
  00000001400026E0: 48 83 C4 48        add         rsp,48h
  00000001400026E4: C3                 ret
  00000001400026E5: 66 66 2E 0F 1F 84  nop         word ptr cs:[rax+rax+0000000000000000h]
                    00 00 00 00 00
  00000001400026F0: 48 83 EC 28        sub         rsp,28h
  00000001400026F4: 48 8B 05 D5 1C 00  mov         rax,qword ptr [00000001400043D0h]
                    00
  00000001400026FB: FF 10              call        qword ptr [rax]
  00000001400026FD: E8 7E 00 00 00     call        0000000140002780
  0000000140002702: 48 89 05 B7 09 00  mov         qword ptr [00000001400030C0h],rax
                    00
  0000000140002709: E8 6A 00 00 00     call        0000000140002778
  000000014000270E: 48 89 05 A3 09 00  mov         qword ptr [00000001400030B8h],rax
                    00
  0000000140002715: E8 56 00 00 00     call        0000000140002770
  000000014000271A: 48 89 05 8F 09 00  mov         qword ptr [00000001400030B0h],rax
                    00
  0000000140002721: 48 83 C4 28        add         rsp,28h
  0000000140002725: C3                 ret
  0000000140002726: 66 2E 0F 1F 84 00  nop         word ptr cs:[rax+rax+0000000000000000h]
                    00 00 00 00
  0000000140002730: 48 83 EC 28        sub         rsp,28h
  0000000140002734: 48 8B 05 95 1C 00  mov         rax,qword ptr [00000001400043D0h]
                    00
  000000014000273B: FF 10              call        qword ptr [rax]
  000000014000273D: E8 3E 00 00 00     call        0000000140002780
  0000000140002742: 48 89 05 77 09 00  mov         qword ptr [00000001400030C0h],rax
                    00
  0000000140002749: E8 2A 00 00 00     call        0000000140002778
  000000014000274E: 48 89 05 63 09 00  mov         qword ptr [00000001400030B8h],rax
                    00
  0000000140002755: E8 16 00 00 00     call        0000000140002770
  000000014000275A: 48 89 05 4F 09 00  mov         qword ptr [00000001400030B0h],rax
                    00
  0000000140002761: 48 83 C4 28        add         rsp,28h
  0000000140002765: C3                 ret
  0000000140002766: 90                 nop
  0000000140002767: 90                 nop
  0000000140002768: 90                 nop
  0000000140002769: 90                 nop
  000000014000276A: 90                 nop
  000000014000276B: 90                 nop
  000000014000276C: 90                 nop
  000000014000276D: 90                 nop
  000000014000276E: 90                 nop
  000000014000276F: 90                 nop
  0000000140002770: FF 25 CA 5C 00 00  jmp         qword ptr [0000000140008440h]
  0000000140002776: 90                 nop
  0000000140002777: 90                 nop
  0000000140002778: FF 25 CA 5C 00 00  jmp         qword ptr [0000000140008448h]
  000000014000277E: 90                 nop
  000000014000277F: 90                 nop
  0000000140002780: FF 25 CA 5C 00 00  jmp         qword ptr [0000000140008450h]
  0000000140002786: 90                 nop
  0000000140002787: 90                 nop
  0000000140002788: 0F 1F 84 00 00 00  nop         dword ptr [rax+rax+0000000000000000h]
                    00 00
  0000000140002790: FF 25 92 5C 00 00  jmp         qword ptr [0000000140008428h]
  0000000140002796: 90                 nop
  0000000140002797: 90                 nop
  0000000140002798: FF 25 92 5C 00 00  jmp         qword ptr [0000000140008430h]
  000000014000279E: 90                 nop
  000000014000279F: 90                 nop
  00000001400027A0: FF 25 42 5C 00 00  jmp         qword ptr [00000001400083E8h]
  00000001400027A6: 90                 nop
  00000001400027A7: 90                 nop
  00000001400027A8: FF 25 42 5C 00 00  jmp         qword ptr [00000001400083F0h]
  00000001400027AE: 90                 nop
  00000001400027AF: 90                 nop
  00000001400027B0: FF 25 42 5C 00 00  jmp         qword ptr [00000001400083F8h]
  00000001400027B6: 90                 nop
  00000001400027B7: 90                 nop
  00000001400027B8: FF 25 42 5C 00 00  jmp         qword ptr [0000000140008400h]
  00000001400027BE: 90                 nop
  00000001400027BF: 90                 nop
  00000001400027C0: FF 25 42 5C 00 00  jmp         qword ptr [0000000140008408h]
  00000001400027C6: 90                 nop
  00000001400027C7: 90                 nop
  00000001400027C8: FF 25 42 5C 00 00  jmp         qword ptr [0000000140008410h]
  00000001400027CE: 90                 nop
  00000001400027CF: 90                 nop
  00000001400027D0: FF 25 42 5C 00 00  jmp         qword ptr [0000000140008418h]
  00000001400027D6: 90                 nop
  00000001400027D7: 90                 nop
  00000001400027D8: 0F 1F 84 00 00 00  nop         dword ptr [rax+rax+0000000000000000h]
                    00 00
  00000001400027E0: FF 25 72 5B 00 00  jmp         qword ptr [0000000140008358h]
  00000001400027E6: 90                 nop
  00000001400027E7: 90                 nop
  00000001400027E8: FF 25 72 5B 00 00  jmp         qword ptr [0000000140008360h]
  00000001400027EE: 90                 nop
  00000001400027EF: 90                 nop
  00000001400027F0: FF 25 72 5B 00 00  jmp         qword ptr [0000000140008368h]
  00000001400027F6: 90                 nop
  00000001400027F7: 90                 nop
  00000001400027F8: FF 25 72 5B 00 00  jmp         qword ptr [0000000140008370h]
  00000001400027FE: 90                 nop
  00000001400027FF: 90                 nop
  0000000140002800: FF 25 72 5B 00 00  jmp         qword ptr [0000000140008378h]
  0000000140002806: 90                 nop
  0000000140002807: 90                 nop
  0000000140002808: FF 25 72 5B 00 00  jmp         qword ptr [0000000140008380h]
  000000014000280E: 90                 nop
  000000014000280F: 90                 nop
  0000000140002810: FF 25 72 5B 00 00  jmp         qword ptr [0000000140008388h]
  0000000140002816: 90                 nop
  0000000140002817: 90                 nop
  0000000140002818: FF 25 72 5B 00 00  jmp         qword ptr [0000000140008390h]
  000000014000281E: 90                 nop
  000000014000281F: 90                 nop
  0000000140002820: FF 25 72 5B 00 00  jmp         qword ptr [0000000140008398h]
  0000000140002826: 90                 nop
  0000000140002827: 90                 nop
  0000000140002828: FF 25 72 5B 00 00  jmp         qword ptr [00000001400083A0h]
  000000014000282E: 90                 nop
  000000014000282F: 90                 nop
  0000000140002830: FF 25 72 5B 00 00  jmp         qword ptr [00000001400083A8h]
  0000000140002836: 90                 nop
  0000000140002837: 90                 nop
  0000000140002838: FF 25 72 5B 00 00  jmp         qword ptr [00000001400083B0h]
  000000014000283E: 90                 nop
  000000014000283F: 90                 nop
  0000000140002840: FF 25 72 5B 00 00  jmp         qword ptr [00000001400083B8h]
  0000000140002846: 90                 nop
  0000000140002847: 90                 nop
  0000000140002848: FF 25 72 5B 00 00  jmp         qword ptr [00000001400083C0h]
  000000014000284E: 90                 nop
  000000014000284F: 90                 nop
  0000000140002850: FF 25 72 5B 00 00  jmp         qword ptr [00000001400083C8h]
  0000000140002856: 90                 nop
  0000000140002857: 90                 nop
  0000000140002858: FF 25 72 5B 00 00  jmp         qword ptr [00000001400083D0h]
  000000014000285E: 90                 nop
  000000014000285F: 90                 nop
  0000000140002860: FF 25 72 5B 00 00  jmp         qword ptr [00000001400083D8h]
  0000000140002866: 90                 nop
  0000000140002867: 90                 nop
  0000000140002868: 0F 1F 84 00 00 00  nop         dword ptr [rax+rax+0000000000000000h]
                    00 00
  0000000140002870: FF 25 CA 5A 00 00  jmp         qword ptr [0000000140008340h]
  0000000140002876: 90                 nop
  0000000140002877: 90                 nop
  0000000140002878: FF 25 CA 5A 00 00  jmp         qword ptr [0000000140008348h]
  000000014000287E: 90                 nop
  000000014000287F: 90                 nop
  0000000140002880: FF 25 AA 5A 00 00  jmp         qword ptr [0000000140008330h]
  0000000140002886: 90                 nop
  0000000140002887: 90                 nop
  0000000140002888: 0F 1F 84 00 00 00  nop         dword ptr [rax+rax+0000000000000000h]
                    00 00
  0000000140002890: FF 25 72 5A 00 00  jmp         qword ptr [0000000140008308h]
  0000000140002896: 90                 nop
  0000000140002897: 90                 nop
  0000000140002898: FF 25 72 5A 00 00  jmp         qword ptr [0000000140008310h]
  000000014000289E: 90                 nop
  000000014000289F: 90                 nop
  00000001400028A0: FF 25 72 5A 00 00  jmp         qword ptr [0000000140008318h]
  00000001400028A6: 90                 nop
  00000001400028A7: 90                 nop
  00000001400028A8: FF 25 72 5A 00 00  jmp         qword ptr [0000000140008320h]
  00000001400028AE: 90                 nop
  00000001400028AF: 90                 nop
  00000001400028B0: FF 25 3A 5A 00 00  jmp         qword ptr [00000001400082F0h]
  00000001400028B6: 90                 nop
  00000001400028B7: 90                 nop
  00000001400028B8: FF 25 3A 5A 00 00  jmp         qword ptr [00000001400082F8h]
  00000001400028BE: 90                 nop
  00000001400028BF: 90                 nop
  00000001400028C0: FF 25 1A 5A 00 00  jmp         qword ptr [00000001400082E0h]
  00000001400028C6: 90                 nop
  00000001400028C7: 90                 nop
  00000001400028C8: FF 25 0A 5A 00 00  jmp         qword ptr [00000001400082D8h]
  00000001400028CE: 90                 nop
  00000001400028CF: 90                 nop
  00000001400028D0: FF 25 FA 59 00 00  jmp         qword ptr [00000001400082D0h]
  00000001400028D6: 90                 nop
  00000001400028D7: 90                 nop
  00000001400028D8: FF 25 EA 59 00 00  jmp         qword ptr [00000001400082C8h]
  00000001400028DE: 90                 nop
  00000001400028DF: 90                 nop
  00000001400028E0: FF 25 DA 59 00 00  jmp         qword ptr [00000001400082C0h]
  00000001400028E6: 90                 nop
  00000001400028E7: 90                 nop
  00000001400028E8: FF 25 CA 59 00 00  jmp         qword ptr [00000001400082B8h]
  00000001400028EE: 90                 nop
  00000001400028EF: 90                 nop
  00000001400028F0: FF 25 BA 59 00 00  jmp         qword ptr [00000001400082B0h]
  00000001400028F6: 90                 nop
  00000001400028F7: 90                 nop
  00000001400028F8: FF 25 AA 59 00 00  jmp         qword ptr [00000001400082A8h]
  00000001400028FE: 90                 nop
  00000001400028FF: 90                 nop
  0000000140002900: FF 25 9A 59 00 00  jmp         qword ptr [00000001400082A0h]
  0000000140002906: 90                 nop
  0000000140002907: 90                 nop
  0000000140002908: FF 25 8A 59 00 00  jmp         qword ptr [0000000140008298h]
  000000014000290E: 90                 nop
  000000014000290F: 90                 nop
  0000000140002910: 56                 push        rsi
  0000000140002911: 53                 push        rbx
  0000000140002912: 48 83 EC 28        sub         rsp,28h
  0000000140002916: E8 E5 EB FF FF     call        0000000140001500
  000000014000291B: B9 00 CA 9A 3B     mov         ecx,3B9ACA00h
  0000000140002920: E8 83 FF FF FF     call        00000001400028A8
  0000000140002925: B9 00 CA 9A 3B     mov         ecx,3B9ACA00h
  000000014000292A: 48 89 C6           mov         rsi,rax
  000000014000292D: E8 76 FF FF FF     call        00000001400028A8
  0000000140002932: 48 89 F2           mov         rdx,rsi
  0000000140002935: 41 B8 00 CA 9A 3B  mov         r8d,3B9ACA00h
  000000014000293B: 48 89 C3           mov         rbx,rax
  000000014000293E: 48 89 C1           mov         rcx,rax
  0000000140002941: E8 32 FF FF FF     call        0000000140002878
  0000000140002946: 48 8D B3 00 CA 9A  lea         rsi,[rbx+000000003B9ACA00h]
                    3B
  000000014000294D: 0F 1F 00           nop         dword ptr [rax]
  0000000140002950: 0F BE 0B           movsx       ecx,byte ptr [rbx]
  0000000140002953: 48 83 C3 01        add         rbx,1
  0000000140002957: E8 74 FE FF FF     call        00000001400027D0
  000000014000295C: 48 39 F3           cmp         rbx,rsi
  000000014000295F: 75 EF              jne         0000000140002950
  0000000140002961: 31 C0              xor         eax,eax
  0000000140002963: 48 83 C4 28        add         rsp,28h
  0000000140002967: 5B                 pop         rbx
  0000000140002968: 5E                 pop         rsi
  0000000140002969: C3                 ret
  000000014000296A: 90                 nop
  000000014000296B: 90                 nop
  000000014000296C: 90                 nop
  000000014000296D: 90                 nop
  000000014000296E: 90                 nop
  000000014000296F: 90                 nop
  0000000140002970: E9 BB EA FF FF     jmp         0000000140001430
  0000000140002975: 90                 nop
  0000000140002976: 90                 nop
  0000000140002977: 90                 nop
  0000000140002978: 90                 nop
  0000000140002979: 90                 nop
  000000014000297A: 90                 nop
  000000014000297B: 90                 nop
  000000014000297C: 90                 nop
  000000014000297D: 90                 nop
  000000014000297E: 90                 nop
  000000014000297F: 90                 nop
  0000000140002980: FF
  0000000140002981: FF
  0000000140002982: FF
  0000000140002983: FF
  0000000140002984: FF
  0000000140002985: FF
  0000000140002986: FF
  0000000140002987: FF 70 29           push        qword ptr [rax+29h]
  000000014000298A: 00 40 01           add         byte ptr [rax+1],al
  000000014000298D: 00 00              add         byte ptr [rax],al
  000000014000298F: 00 00              add         byte ptr [rax],al
  0000000140002991: 00 00              add         byte ptr [rax],al
  0000000140002993: 00 00              add         byte ptr [rax],al
  0000000140002995: 00 00              add         byte ptr [rax],al
  0000000140002997: 00 FF              add         bh,bh
  0000000140002999: FF
  000000014000299A: FF
  000000014000299B: FF
  000000014000299C: FF
  000000014000299D: FF
  000000014000299E: FF
  000000014000299F: FF 00              inc         dword ptr [rax]
  00000001400029A1: 00 00              add         byte ptr [rax],al
  00000001400029A3: 00 00              add         byte ptr [rax],al
  00000001400029A5: 00 00              add         byte ptr [rax],al
  00000001400029A7: 00

  Summary

        1000 .CRT
        1000 .bss
        1000 .data
        1000 .debug_abbrev
        1000 .debug_aranges
        1000 .debug_frame
        1000 .debug_info
        1000 .debug_line
        1000 .debug_line_str
        1000 .debug_str
        1000 .idata
        1000 .pdata
        1000 .rdata
        1000 .reloc
        2000 .text
        1000 .tls
        1000 .xdata
